
GccApplication1.elf:     file format elf32-avr

Sections:
Idx Name          Size      VMA       LMA       File off  Algn
  0 .data         00000028  00800100  00001c82  00001d16  2**0
                  CONTENTS, ALLOC, LOAD, DATA
  1 .text         00001c82  00000000  00000000  00000094  2**1
                  CONTENTS, ALLOC, LOAD, READONLY, CODE
  2 .bss          000000ad  00800128  00800128  00001d3e  2**0
                  ALLOC
  3 .comment      00000030  00000000  00000000  00001d3e  2**0
                  CONTENTS, READONLY
  4 .note.gnu.avr.deviceinfo 00000040  00000000  00000000  00001d70  2**2
                  CONTENTS, READONLY
  5 .debug_aranges 000001e8  00000000  00000000  00001db0  2**0
                  CONTENTS, READONLY, DEBUGGING
  6 .debug_info   000026b2  00000000  00000000  00001f98  2**0
                  CONTENTS, READONLY, DEBUGGING
  7 .debug_abbrev 00000fe4  00000000  00000000  0000464a  2**0
                  CONTENTS, READONLY, DEBUGGING
  8 .debug_line   00001ce6  00000000  00000000  0000562e  2**0
                  CONTENTS, READONLY, DEBUGGING
  9 .debug_frame  00000580  00000000  00000000  00007314  2**2
                  CONTENTS, READONLY, DEBUGGING
 10 .debug_str    000009d5  00000000  00000000  00007894  2**0
                  CONTENTS, READONLY, DEBUGGING
 11 .debug_loc    00001b83  00000000  00000000  00008269  2**0
                  CONTENTS, READONLY, DEBUGGING
 12 .debug_ranges 000001a8  00000000  00000000  00009dec  2**0
                  CONTENTS, READONLY, DEBUGGING

Disassembly of section .text:

00000000 <__vectors>:
       0:	5f c0       	rjmp	.+190    	; 0xc0 <__ctors_end>
       2:	00 00       	nop
       4:	7b c0       	rjmp	.+246    	; 0xfc <__bad_interrupt>
       6:	00 00       	nop
       8:	79 c0       	rjmp	.+242    	; 0xfc <__bad_interrupt>
       a:	00 00       	nop
       c:	77 c0       	rjmp	.+238    	; 0xfc <__bad_interrupt>
       e:	00 00       	nop
      10:	75 c0       	rjmp	.+234    	; 0xfc <__bad_interrupt>
      12:	00 00       	nop
      14:	73 c0       	rjmp	.+230    	; 0xfc <__bad_interrupt>
      16:	00 00       	nop
      18:	71 c0       	rjmp	.+226    	; 0xfc <__bad_interrupt>
      1a:	00 00       	nop
      1c:	6f c0       	rjmp	.+222    	; 0xfc <__bad_interrupt>
      1e:	00 00       	nop
      20:	6d c0       	rjmp	.+218    	; 0xfc <__bad_interrupt>
      22:	00 00       	nop
      24:	6b c0       	rjmp	.+214    	; 0xfc <__bad_interrupt>
      26:	00 00       	nop
      28:	03 c2       	rjmp	.+1030   	; 0x430 <__vector_10>
      2a:	00 00       	nop
      2c:	67 c0       	rjmp	.+206    	; 0xfc <__bad_interrupt>
      2e:	00 00       	nop
      30:	65 c0       	rjmp	.+202    	; 0xfc <__bad_interrupt>
      32:	00 00       	nop
      34:	63 c0       	rjmp	.+198    	; 0xfc <__bad_interrupt>
      36:	00 00       	nop
      38:	61 c0       	rjmp	.+194    	; 0xfc <__bad_interrupt>
      3a:	00 00       	nop
      3c:	5f c0       	rjmp	.+190    	; 0xfc <__bad_interrupt>
      3e:	00 00       	nop
      40:	5d c0       	rjmp	.+186    	; 0xfc <__bad_interrupt>
      42:	00 00       	nop
      44:	5b c0       	rjmp	.+182    	; 0xfc <__bad_interrupt>
      46:	00 00       	nop
      48:	59 c0       	rjmp	.+178    	; 0xfc <__bad_interrupt>
      4a:	00 00       	nop
      4c:	57 c0       	rjmp	.+174    	; 0xfc <__bad_interrupt>
      4e:	00 00       	nop
      50:	55 c0       	rjmp	.+170    	; 0xfc <__bad_interrupt>
      52:	00 00       	nop
      54:	81 c2       	rjmp	.+1282   	; 0x558 <__vector_21>
      56:	00 00       	nop
      58:	51 c0       	rjmp	.+162    	; 0xfc <__bad_interrupt>
      5a:	00 00       	nop
      5c:	4f c0       	rjmp	.+158    	; 0xfc <__bad_interrupt>
      5e:	00 00       	nop
      60:	4d c0       	rjmp	.+154    	; 0xfc <__bad_interrupt>
      62:	00 00       	nop
      64:	4b c0       	rjmp	.+150    	; 0xfc <__bad_interrupt>
      66:	00 00       	nop
      68:	49 c0       	rjmp	.+146    	; 0xfc <__bad_interrupt>
      6a:	00 00       	nop
      6c:	47 c0       	rjmp	.+142    	; 0xfc <__bad_interrupt>
      6e:	00 00       	nop
      70:	45 c0       	rjmp	.+138    	; 0xfc <__bad_interrupt>
      72:	00 00       	nop
      74:	43 c0       	rjmp	.+134    	; 0xfc <__bad_interrupt>
      76:	00 00       	nop
      78:	0c 94 ee 0c 	jmp	0x19dc	; 0x19dc <__vector_30>
      7c:	3f c0       	rjmp	.+126    	; 0xfc <__bad_interrupt>
      7e:	00 00       	nop
      80:	3d c0       	rjmp	.+122    	; 0xfc <__bad_interrupt>
      82:	00 00       	nop
      84:	3b c0       	rjmp	.+118    	; 0xfc <__bad_interrupt>
      86:	00 00       	nop
      88:	39 c0       	rjmp	.+114    	; 0xfc <__bad_interrupt>
      8a:	00 00       	nop
      8c:	fb 00       	.word	0x00fb	; ????
      8e:	00 01       	movw	r0, r0
      90:	05 01       	movw	r0, r10
      92:	0a 01       	movw	r0, r20
      94:	0f 01       	movw	r0, r30
      96:	14 01       	movw	r2, r8
      98:	19 01       	movw	r2, r18
      9a:	27 01       	movw	r4, r14
      9c:	1e 01       	movw	r2, r28
      9e:	23 01       	movw	r4, r6
      a0:	93 08       	sbc	r9, r3
      a2:	bb 08       	sbc	r11, r11
      a4:	c8 08       	sbc	r12, r8
      a6:	d5 08       	sbc	r13, r5
      a8:	ea 08       	sbc	r14, r10
      aa:	f4 08       	sbc	r15, r4
      ac:	fe 08       	sbc	r15, r14
      ae:	08 09       	sbc	r16, r8
      b0:	48 09       	sbc	r20, r8
      b2:	5c 09       	sbc	r21, r12
      b4:	70 09       	sbc	r23, r0
      b6:	81 09       	sbc	r24, r1
      b8:	93 09       	sbc	r25, r3
      ba:	a2 09       	sbc	r26, r2
      bc:	b6 09       	sbc	r27, r6
      be:	c7 09       	sbc	r28, r7

000000c0 <__ctors_end>:
      c0:	11 24       	eor	r1, r1
      c2:	1f be       	out	0x3f, r1	; 63
      c4:	cf ef       	ldi	r28, 0xFF	; 255
      c6:	d0 e1       	ldi	r29, 0x10	; 16
      c8:	de bf       	out	0x3e, r29	; 62
      ca:	cd bf       	out	0x3d, r28	; 61

000000cc <__do_copy_data>:
      cc:	11 e0       	ldi	r17, 0x01	; 1
      ce:	a0 e0       	ldi	r26, 0x00	; 0
      d0:	b1 e0       	ldi	r27, 0x01	; 1
      d2:	e2 e8       	ldi	r30, 0x82	; 130
      d4:	fc e1       	ldi	r31, 0x1C	; 28
      d6:	00 e0       	ldi	r16, 0x00	; 0
      d8:	0b bf       	out	0x3b, r16	; 59
      da:	02 c0       	rjmp	.+4      	; 0xe0 <__do_copy_data+0x14>
      dc:	07 90       	elpm	r0, Z+
      de:	0d 92       	st	X+, r0
      e0:	a8 32       	cpi	r26, 0x28	; 40
      e2:	b1 07       	cpc	r27, r17
      e4:	d9 f7       	brne	.-10     	; 0xdc <__do_copy_data+0x10>

000000e6 <__do_clear_bss>:
      e6:	21 e0       	ldi	r18, 0x01	; 1
      e8:	a8 e2       	ldi	r26, 0x28	; 40
      ea:	b1 e0       	ldi	r27, 0x01	; 1
      ec:	01 c0       	rjmp	.+2      	; 0xf0 <.do_clear_bss_start>

000000ee <.do_clear_bss_loop>:
      ee:	1d 92       	st	X+, r1

000000f0 <.do_clear_bss_start>:
      f0:	a5 3d       	cpi	r26, 0xD5	; 213
      f2:	b2 07       	cpc	r27, r18
      f4:	e1 f7       	brne	.-8      	; 0xee <.do_clear_bss_loop>
      f6:	59 d7       	rcall	.+3762   	; 0xfaa <main>
      f8:	0c 94 3f 0e 	jmp	0x1c7e	; 0x1c7e <_exit>

000000fc <__bad_interrupt>:
      fc:	81 cf       	rjmp	.-254    	; 0x0 <__vectors>

000000fe <at93c46_ewen>:
#include "extern.h"

#define DELAY_SPI	10
void at93c46_ewen(void)
{
	cbi(PORTB,CS);
      fe:	c0 98       	cbi	0x18, 0	; 24
	SPDR = 0x02;
     100:	82 e0       	ldi	r24, 0x02	; 2
     102:	8f b9       	out	0x0f, r24	; 15
	#else
		//round up by default
		__ticks_dc = (uint32_t)(ceil(fabs(__tmp)));
	#endif

	__builtin_avr_delay_cycles(__ticks_dc);
     104:	8f e3       	ldi	r24, 0x3F	; 63
     106:	9c e9       	ldi	r25, 0x9C	; 156
     108:	01 97       	sbiw	r24, 0x01	; 1
     10a:	f1 f7       	brne	.-4      	; 0x108 <at93c46_ewen+0xa>
     10c:	00 c0       	rjmp	.+0      	; 0x10e <at93c46_ewen+0x10>
     10e:	00 00       	nop
	_delay_ms(DELAY_SPI);
	SPDR = 0x60;
     110:	80 e6       	ldi	r24, 0x60	; 96
     112:	8f b9       	out	0x0f, r24	; 15
     114:	8f e3       	ldi	r24, 0x3F	; 63
     116:	9c e9       	ldi	r25, 0x9C	; 156
     118:	01 97       	sbiw	r24, 0x01	; 1
     11a:	f1 f7       	brne	.-4      	; 0x118 <at93c46_ewen+0x1a>
     11c:	00 c0       	rjmp	.+0      	; 0x11e <at93c46_ewen+0x20>
     11e:	00 00       	nop
	_delay_ms(DELAY_SPI);
	sbi(PORTB,CS);
     120:	c0 9a       	sbi	0x18, 0	; 24
     122:	08 95       	ret

00000124 <at93c46_ewds>:
}

void at93c46_ewds(void)
{
	cbi(PORTB,CS);
     124:	c0 98       	cbi	0x18, 0	; 24
	SPDR = 0x02;
     126:	82 e0       	ldi	r24, 0x02	; 2
     128:	8f b9       	out	0x0f, r24	; 15
     12a:	8f e3       	ldi	r24, 0x3F	; 63
     12c:	9c e9       	ldi	r25, 0x9C	; 156
     12e:	01 97       	sbiw	r24, 0x01	; 1
     130:	f1 f7       	brne	.-4      	; 0x12e <at93c46_ewds+0xa>
     132:	00 c0       	rjmp	.+0      	; 0x134 <at93c46_ewds+0x10>
     134:	00 00       	nop
	_delay_ms(DELAY_SPI);
	SPDR = 0x60;
     136:	80 e6       	ldi	r24, 0x60	; 96
     138:	8f b9       	out	0x0f, r24	; 15
     13a:	8f e3       	ldi	r24, 0x3F	; 63
     13c:	9c e9       	ldi	r25, 0x9C	; 156
     13e:	01 97       	sbiw	r24, 0x01	; 1
     140:	f1 f7       	brne	.-4      	; 0x13e <at93c46_ewds+0x1a>
     142:	00 c0       	rjmp	.+0      	; 0x144 <at93c46_ewds+0x20>
     144:	00 00       	nop
	_delay_ms(DELAY_SPI);
	sbi(PORTB,CS);
     146:	c0 9a       	sbi	0x18, 0	; 24
     148:	08 95       	ret

0000014a <at93c46_read>:
}
uint8_t at93c46_read(uint8_t addr)
{
	uint8_t high, low;
	
	cbi(PORTB, CS);
     14a:	c0 98       	cbi	0x18, 0	; 24
	SPDR = 0x03;
     14c:	93 e0       	ldi	r25, 0x03	; 3
     14e:	9f b9       	out	0x0f, r25	; 15
     150:	ef e3       	ldi	r30, 0x3F	; 63
     152:	fc e9       	ldi	r31, 0x9C	; 156
     154:	31 97       	sbiw	r30, 0x01	; 1
     156:	f1 f7       	brne	.-4      	; 0x154 <at93c46_read+0xa>
     158:	00 c0       	rjmp	.+0      	; 0x15a <at93c46_read+0x10>
     15a:	00 00       	nop
	_delay_ms(DELAY_SPI);
	SPDR = addr;
     15c:	8f b9       	out	0x0f, r24	; 15
     15e:	8f e3       	ldi	r24, 0x3F	; 63
     160:	9c e9       	ldi	r25, 0x9C	; 156
     162:	01 97       	sbiw	r24, 0x01	; 1
     164:	f1 f7       	brne	.-4      	; 0x162 <at93c46_read+0x18>
     166:	00 c0       	rjmp	.+0      	; 0x168 <at93c46_read+0x1e>
     168:	00 00       	nop
	_delay_ms(DELAY_SPI);
	SPDR = 0x00;
     16a:	1f b8       	out	0x0f, r1	; 15
     16c:	ef e3       	ldi	r30, 0x3F	; 63
     16e:	fc e9       	ldi	r31, 0x9C	; 156
     170:	31 97       	sbiw	r30, 0x01	; 1
     172:	f1 f7       	brne	.-4      	; 0x170 <at93c46_read+0x26>
     174:	00 c0       	rjmp	.+0      	; 0x176 <at93c46_read+0x2c>
     176:	00 00       	nop
	_delay_ms(DELAY_SPI);
	high = SPDR;
     178:	2f b1       	in	r18, 0x0f	; 15
	SPDR = 0x00;
     17a:	1f b8       	out	0x0f, r1	; 15
     17c:	8f e3       	ldi	r24, 0x3F	; 63
     17e:	9c e9       	ldi	r25, 0x9C	; 156
     180:	01 97       	sbiw	r24, 0x01	; 1
     182:	f1 f7       	brne	.-4      	; 0x180 <at93c46_read+0x36>
     184:	00 c0       	rjmp	.+0      	; 0x186 <at93c46_read+0x3c>
     186:	00 00       	nop
	_delay_ms(DELAY_SPI);
	low = SPDR;
     188:	9f b1       	in	r25, 0x0f	; 15
	sbi(PORTB, CS);
     18a:	c0 9a       	sbi	0x18, 0	; 24
	return (high << 1) + (low >> 7);
     18c:	22 0f       	add	r18, r18
     18e:	89 2f       	mov	r24, r25
     190:	88 1f       	adc	r24, r24
     192:	88 27       	eor	r24, r24
     194:	88 1f       	adc	r24, r24
}
     196:	82 0f       	add	r24, r18
     198:	08 95       	ret

0000019a <at93c46_write>:

void at93c46_write(uint8_t addr, uint8_t dat)
{
	cbi(PORTB, CS);
     19a:	c0 98       	cbi	0x18, 0	; 24
	SPDR = 0x02;
     19c:	92 e0       	ldi	r25, 0x02	; 2
     19e:	9f b9       	out	0x0f, r25	; 15
     1a0:	ef e3       	ldi	r30, 0x3F	; 63
     1a2:	fc e9       	ldi	r31, 0x9C	; 156
     1a4:	31 97       	sbiw	r30, 0x01	; 1
     1a6:	f1 f7       	brne	.-4      	; 0x1a4 <at93c46_write+0xa>
     1a8:	00 c0       	rjmp	.+0      	; 0x1aa <at93c46_write+0x10>
     1aa:	00 00       	nop
	_delay_ms(DELAY_SPI);
	SPDR = addr | 0x80;
     1ac:	80 68       	ori	r24, 0x80	; 128
     1ae:	8f b9       	out	0x0f, r24	; 15
     1b0:	8f e3       	ldi	r24, 0x3F	; 63
     1b2:	9c e9       	ldi	r25, 0x9C	; 156
     1b4:	01 97       	sbiw	r24, 0x01	; 1
     1b6:	f1 f7       	brne	.-4      	; 0x1b4 <at93c46_write+0x1a>
     1b8:	00 c0       	rjmp	.+0      	; 0x1ba <at93c46_write+0x20>
     1ba:	00 00       	nop
	_delay_ms(DELAY_SPI);
	SPDR = dat;
     1bc:	6f b9       	out	0x0f, r22	; 15
     1be:	ef e3       	ldi	r30, 0x3F	; 63
     1c0:	fc e9       	ldi	r31, 0x9C	; 156
     1c2:	31 97       	sbiw	r30, 0x01	; 1
     1c4:	f1 f7       	brne	.-4      	; 0x1c2 <at93c46_write+0x28>
     1c6:	00 c0       	rjmp	.+0      	; 0x1c8 <at93c46_write+0x2e>
     1c8:	00 00       	nop
	_delay_ms(DELAY_SPI);
	sbi(PORTB, CS);
     1ca:	c0 9a       	sbi	0x18, 0	; 24
     1cc:	8f ed       	ldi	r24, 0xDF	; 223
     1ce:	9e e2       	ldi	r25, 0x2E	; 46
     1d0:	01 97       	sbiw	r24, 0x01	; 1
     1d2:	f1 f7       	brne	.-4      	; 0x1d0 <at93c46_write+0x36>
     1d4:	00 c0       	rjmp	.+0      	; 0x1d6 <at93c46_write+0x3c>
     1d6:	00 00       	nop
     1d8:	08 95       	ret

000001da <saveCode>:
	_delay_ms(3);
}

int16_t saveCode(int codeNo,int16_t codeData)
{
     1da:	0f 93       	push	r16
     1dc:	1f 93       	push	r17
     1de:	cf 93       	push	r28
     1e0:	df 93       	push	r29
     1e2:	8c 01       	movw	r16, r24
     1e4:	eb 01       	movw	r28, r22
	uint8_t tmpSPI1,tmpSPI2;
	uint8_t tmpData1,tmpData2;

	switch(codeNo){
     1e6:	8a 30       	cpi	r24, 0x0A	; 10
     1e8:	91 05       	cpc	r25, r1
     1ea:	88 f5       	brcc	.+98     	; 0x24e <saveCode+0x74>
     1ec:	fc 01       	movw	r30, r24
     1ee:	ea 5b       	subi	r30, 0xBA	; 186
     1f0:	ff 4f       	sbci	r31, 0xFF	; 255
     1f2:	0c 94 e1 0d 	jmp	0x1bc2	; 0x1bc2 <__tablejump2__>
		case 0: codePoint		= codeData; break;
     1f6:	70 93 93 01 	sts	0x0193, r23	; 0x800193 <codePoint+0x1>
     1fa:	60 93 92 01 	sts	0x0192, r22	; 0x800192 <codePoint>
     1fe:	27 c0       	rjmp	.+78     	; 0x24e <saveCode+0x74>
		case 1: codeFilt		= codeData; break;
     200:	70 93 ae 01 	sts	0x01AE, r23	; 0x8001ae <codeFilt+0x1>
     204:	60 93 ad 01 	sts	0x01AD, r22	; 0x8001ad <codeFilt>
     208:	22 c0       	rjmp	.+68     	; 0x24e <saveCode+0x74>
		case 2: codeDivision	= codeData; break;
     20a:	70 93 a2 01 	sts	0x01A2, r23	; 0x8001a2 <codeDivision+0x1>
     20e:	60 93 a1 01 	sts	0x01A1, r22	; 0x8001a1 <codeDivision>
     212:	1d c0       	rjmp	.+58     	; 0x24e <saveCode+0x74>
		case 3: codeAutoZero	= codeData; break;
     214:	70 93 b5 01 	sts	0x01B5, r23	; 0x8001b5 <codeAutoZero+0x1>
     218:	60 93 b4 01 	sts	0x01B4, r22	; 0x8001b4 <codeAutoZero>
     21c:	18 c0       	rjmp	.+48     	; 0x24e <saveCode+0x74>
		case 4: codeAlarm		= codeData; break;
     21e:	70 93 b7 01 	sts	0x01B7, r23	; 0x8001b7 <codeAlarm+0x1>
     222:	60 93 b6 01 	sts	0x01B6, r22	; 0x8001b6 <codeAlarm>
     226:	13 c0       	rjmp	.+38     	; 0x24e <saveCode+0x74>
		case 5: codeOver		= codeData; break;
     228:	70 93 d4 01 	sts	0x01D4, r23	; 0x8001d4 <codeOver+0x1>
     22c:	60 93 d3 01 	sts	0x01D3, r22	; 0x8001d3 <codeOver>
     230:	0e c0       	rjmp	.+28     	; 0x24e <saveCode+0x74>
		case 6: codeWeight		= codeData; break;
     232:	70 93 c8 01 	sts	0x01C8, r23	; 0x8001c8 <codeWeight+0x1>
     236:	60 93 c7 01 	sts	0x01C7, r22	; 0x8001c7 <codeWeight>
     23a:	09 c0       	rjmp	.+18     	; 0x24e <saveCode+0x74>
		case 8: codeAdcSpan		= codeData; break;
     23c:	70 93 bf 01 	sts	0x01BF, r23	; 0x8001bf <codeAdcSpan+0x1>
     240:	60 93 be 01 	sts	0x01BE, r22	; 0x8001be <codeAdcSpan>
     244:	04 c0       	rjmp	.+8      	; 0x24e <saveCode+0x74>
		case 9: codeAdcZero		= codeData; break;
     246:	70 93 97 01 	sts	0x0197, r23	; 0x800197 <codeAdcZero+0x1>
     24a:	60 93 96 01 	sts	0x0196, r22	; 0x800196 <codeAdcZero>
	
//	initCodeData();
	tmpData1 = (uint8_t)(codeData >> 8 );
	tmpData2 = (uint8_t)(codeData % 256);
	
	at93c46_ewen();	
     24e:	57 df       	rcall	.-338    	; 0xfe <at93c46_ewen>
	at93c46_write(codeNo * 2, tmpData1);
     250:	00 0f       	add	r16, r16
     252:	6d 2f       	mov	r22, r29
     254:	80 2f       	mov	r24, r16
     256:	a1 df       	rcall	.-190    	; 0x19a <at93c46_write>
	at93c46_write(codeNo * 2+1, tmpData2);
     258:	11 e0       	ldi	r17, 0x01	; 1
     25a:	10 0f       	add	r17, r16
     25c:	be 01       	movw	r22, r28
     25e:	70 78       	andi	r23, 0x80	; 128
     260:	77 23       	and	r23, r23
     262:	2c f4       	brge	.+10     	; 0x26e <saveCode+0x94>
     264:	61 50       	subi	r22, 0x01	; 1
     266:	71 09       	sbc	r23, r1
     268:	7f 6f       	ori	r23, 0xFF	; 255
     26a:	6f 5f       	subi	r22, 0xFF	; 255
     26c:	7f 4f       	sbci	r23, 0xFF	; 255
     26e:	81 2f       	mov	r24, r17
	at93c46_ewds();
     270:	94 df       	rcall	.-216    	; 0x19a <at93c46_write>
     272:	58 df       	rcall	.-336    	; 0x124 <at93c46_ewds>
		
	tmpSPI1 = at93c46_read(codeNo * 2    );
     274:	80 2f       	mov	r24, r16
     276:	69 df       	rcall	.-302    	; 0x14a <at93c46_read>
     278:	c8 2f       	mov	r28, r24
	tmpSPI2 = at93c46_read(codeNo * 2 +1 );
     27a:	81 2f       	mov	r24, r17
     27c:	66 df       	rcall	.-308    	; 0x14a <at93c46_read>
     27e:	2c 2f       	mov	r18, r28
	return ( tmpSPI1 * 256 + tmpSPI2 );	
     280:	30 e0       	ldi	r19, 0x00	; 0
     282:	32 2f       	mov	r19, r18
     284:	22 27       	eor	r18, r18
     286:	a9 01       	movw	r20, r18
}
     288:	48 0f       	add	r20, r24
     28a:	51 1d       	adc	r21, r1
     28c:	ca 01       	movw	r24, r20
     28e:	df 91       	pop	r29
     290:	cf 91       	pop	r28
     292:	1f 91       	pop	r17
     294:	0f 91       	pop	r16
     296:	08 95       	ret

00000298 <readCode>:
     298:	cf 93       	push	r28

int16_t readCode(int codeNo)
{
     29a:	df 93       	push	r29
	uint8_t tmpSPI1,tmpSPI2;

	tmpSPI1 = at93c46_read(codeNo * 2    );
     29c:	d8 2f       	mov	r29, r24
     29e:	dd 0f       	add	r29, r29
     2a0:	8d 2f       	mov	r24, r29
     2a2:	53 df       	rcall	.-346    	; 0x14a <at93c46_read>
     2a4:	c8 2f       	mov	r28, r24
	tmpSPI2 = at93c46_read(codeNo * 2 +1 );
     2a6:	81 e0       	ldi	r24, 0x01	; 1
     2a8:	8d 0f       	add	r24, r29
     2aa:	4f df       	rcall	.-354    	; 0x14a <at93c46_read>
	return ( tmpSPI1 * 256 + tmpSPI2 );	
     2ac:	2c 2f       	mov	r18, r28
     2ae:	30 e0       	ldi	r19, 0x00	; 0
     2b0:	32 2f       	mov	r19, r18
     2b2:	22 27       	eor	r18, r18
}
     2b4:	a9 01       	movw	r20, r18
     2b6:	48 0f       	add	r20, r24
     2b8:	51 1d       	adc	r21, r1
     2ba:	ca 01       	movw	r24, r20
     2bc:	df 91       	pop	r29
     2be:	cf 91       	pop	r28
     2c0:	08 95       	ret

000002c2 <readRomData>:

int readRomData(void)
{	

	codePoint = readCode(0);
     2c2:	80 e0       	ldi	r24, 0x00	; 0
     2c4:	90 e0       	ldi	r25, 0x00	; 0
     2c6:	e8 df       	rcall	.-48     	; 0x298 <readCode>
     2c8:	90 93 93 01 	sts	0x0193, r25	; 0x800193 <codePoint+0x1>
     2cc:	80 93 92 01 	sts	0x0192, r24	; 0x800192 <codePoint>
	if( (codePoint < 0 ) || (codePoint > 2)) return ERR_CODE_0;
     2d0:	03 97       	sbiw	r24, 0x03	; 3
     2d2:	08 f0       	brcs	.+2      	; 0x2d6 <readRomData+0x14>
     2d4:	53 c0       	rjmp	.+166    	; 0x37c <readRomData+0xba>
	
	codeFilt		= readCode(1);
     2d6:	81 e0       	ldi	r24, 0x01	; 1
     2d8:	90 e0       	ldi	r25, 0x00	; 0
     2da:	de df       	rcall	.-68     	; 0x298 <readCode>
     2dc:	90 93 ae 01 	sts	0x01AE, r25	; 0x8001ae <codeFilt+0x1>
     2e0:	80 93 ad 01 	sts	0x01AD, r24	; 0x8001ad <codeFilt>
	if( (codeFilt < 0 ) || (codeFilt > 9)) return ERR_CODE_1;
     2e4:	0a 97       	sbiw	r24, 0x0a	; 10
     2e6:	08 f0       	brcs	.+2      	; 0x2ea <readRomData+0x28>
     2e8:	4c c0       	rjmp	.+152    	; 0x382 <readRomData+0xc0>

	codeDivision	= readCode(2);
     2ea:	82 e0       	ldi	r24, 0x02	; 2
     2ec:	90 e0       	ldi	r25, 0x00	; 0
     2ee:	d4 df       	rcall	.-88     	; 0x298 <readCode>
     2f0:	90 93 a2 01 	sts	0x01A2, r25	; 0x8001a2 <codeDivision+0x1>
     2f4:	80 93 a1 01 	sts	0x01A1, r24	; 0x8001a1 <codeDivision>
	if( (codeDivision < 0 ) || (codeDivision > 5)) return ERR_CODE_2;
     2f8:	06 97       	sbiw	r24, 0x06	; 6
     2fa:	08 f0       	brcs	.+2      	; 0x2fe <readRomData+0x3c>

	codeAutoZero	= readCode(3);
     2fc:	45 c0       	rjmp	.+138    	; 0x388 <readRomData+0xc6>
     2fe:	83 e0       	ldi	r24, 0x03	; 3
     300:	90 e0       	ldi	r25, 0x00	; 0
     302:	ca df       	rcall	.-108    	; 0x298 <readCode>
     304:	90 93 b5 01 	sts	0x01B5, r25	; 0x8001b5 <codeAutoZero+0x1>
     308:	80 93 b4 01 	sts	0x01B4, r24	; 0x8001b4 <codeAutoZero>
	if( (codeAutoZero < 0 ) || (codeAutoZero > 1)) return ERR_CODE_3;
     30c:	02 97       	sbiw	r24, 0x02	; 2
     30e:	08 f0       	brcs	.+2      	; 0x312 <readRomData+0x50>

	codeAlarm		= readCode(4);
     310:	3e c0       	rjmp	.+124    	; 0x38e <readRomData+0xcc>
     312:	84 e0       	ldi	r24, 0x04	; 4
     314:	90 e0       	ldi	r25, 0x00	; 0
     316:	c0 df       	rcall	.-128    	; 0x298 <readCode>
     318:	90 93 b7 01 	sts	0x01B7, r25	; 0x8001b7 <codeAlarm+0x1>
     31c:	80 93 b6 01 	sts	0x01B6, r24	; 0x8001b6 <codeAlarm>
	if( (codeAlarm < 0 ) || (codeAlarm > 9999 )) return ERR_CODE_4;
     320:	80 31       	cpi	r24, 0x10	; 16
     322:	97 42       	sbci	r25, 0x27	; 39

	codeOver		= readCode(5);
     324:	b8 f5       	brcc	.+110    	; 0x394 <readRomData+0xd2>
     326:	85 e0       	ldi	r24, 0x05	; 5
     328:	90 e0       	ldi	r25, 0x00	; 0
     32a:	b6 df       	rcall	.-148    	; 0x298 <readCode>
     32c:	90 93 d4 01 	sts	0x01D4, r25	; 0x8001d4 <codeOver+0x1>
     330:	80 93 d3 01 	sts	0x01D3, r24	; 0x8001d3 <codeOver>
	if( (codeOver < 0 ) || (codeOver > 9999)) return ERR_CODE_5;
     334:	80 31       	cpi	r24, 0x10	; 16
     336:	97 42       	sbci	r25, 0x27	; 39

	codeWeight		= readCode(6);
     338:	80 f5       	brcc	.+96     	; 0x39a <readRomData+0xd8>
     33a:	86 e0       	ldi	r24, 0x06	; 6
     33c:	90 e0       	ldi	r25, 0x00	; 0
     33e:	ac df       	rcall	.-168    	; 0x298 <readCode>
     340:	90 93 c8 01 	sts	0x01C8, r25	; 0x8001c8 <codeWeight+0x1>
     344:	80 93 c7 01 	sts	0x01C7, r24	; 0x8001c7 <codeWeight>
	if( (codeWeight < 0 ) || (codeWeight > 9999)) return ERR_CODE_6;
     348:	80 31       	cpi	r24, 0x10	; 16
     34a:	97 42       	sbci	r25, 0x27	; 39

	codeAdcSpan	= readCode(8);
     34c:	48 f5       	brcc	.+82     	; 0x3a0 <readRomData+0xde>
     34e:	88 e0       	ldi	r24, 0x08	; 8
     350:	90 e0       	ldi	r25, 0x00	; 0
     352:	a2 df       	rcall	.-188    	; 0x298 <readCode>
     354:	90 93 bf 01 	sts	0x01BF, r25	; 0x8001bf <codeAdcSpan+0x1>
     358:	80 93 be 01 	sts	0x01BE, r24	; 0x8001be <codeAdcSpan>
	if( (codeAdcSpan < 0 ) || (codeAdcSpan > 9999)) return ERR_CODE_8;
     35c:	80 31       	cpi	r24, 0x10	; 16
     35e:	97 42       	sbci	r25, 0x27	; 39

	codeAdcZero	= readCode(9);
     360:	10 f5       	brcc	.+68     	; 0x3a6 <readRomData+0xe4>
     362:	89 e0       	ldi	r24, 0x09	; 9
     364:	90 e0       	ldi	r25, 0x00	; 0
     366:	98 df       	rcall	.-208    	; 0x298 <readCode>
     368:	90 93 97 01 	sts	0x0197, r25	; 0x800197 <codeAdcZero+0x1>
     36c:	80 93 96 01 	sts	0x0196, r24	; 0x800196 <codeAdcZero>
	if( (codeAdcZero < 0 ) || (codeAdcZero > 9999)) return ERR_CODE_9;
     370:	80 31       	cpi	r24, 0x10	; 16
     372:	97 42       	sbci	r25, 0x27	; 39
     374:	d8 f4       	brcc	.+54     	; 0x3ac <readRomData+0xea>
	
	return -1;
     376:	8f ef       	ldi	r24, 0xFF	; 255
     378:	9f ef       	ldi	r25, 0xFF	; 255
     37a:	08 95       	ret

int readRomData(void)
{	

	codePoint = readCode(0);
	if( (codePoint < 0 ) || (codePoint > 2)) return ERR_CODE_0;
     37c:	86 e4       	ldi	r24, 0x46	; 70
     37e:	90 e0       	ldi	r25, 0x00	; 0
     380:	08 95       	ret
	
	codeFilt		= readCode(1);
	if( (codeFilt < 0 ) || (codeFilt > 9)) return ERR_CODE_1;
     382:	87 e4       	ldi	r24, 0x47	; 71
     384:	90 e0       	ldi	r25, 0x00	; 0
     386:	08 95       	ret

	codeDivision	= readCode(2);
	if( (codeDivision < 0 ) || (codeDivision > 5)) return ERR_CODE_2;
     388:	88 e4       	ldi	r24, 0x48	; 72
     38a:	90 e0       	ldi	r25, 0x00	; 0
     38c:	08 95       	ret

	codeAutoZero	= readCode(3);
	if( (codeAutoZero < 0 ) || (codeAutoZero > 1)) return ERR_CODE_3;
     38e:	89 e4       	ldi	r24, 0x49	; 73
     390:	90 e0       	ldi	r25, 0x00	; 0
     392:	08 95       	ret

	codeAlarm		= readCode(4);
	if( (codeAlarm < 0 ) || (codeAlarm > 9999 )) return ERR_CODE_4;
     394:	8a e4       	ldi	r24, 0x4A	; 74
     396:	90 e0       	ldi	r25, 0x00	; 0
     398:	08 95       	ret

	codeOver		= readCode(5);
	if( (codeOver < 0 ) || (codeOver > 9999)) return ERR_CODE_5;
     39a:	8b e4       	ldi	r24, 0x4B	; 75
     39c:	90 e0       	ldi	r25, 0x00	; 0
     39e:	08 95       	ret

	codeWeight		= readCode(6);
	if( (codeWeight < 0 ) || (codeWeight > 9999)) return ERR_CODE_6;
     3a0:	8c e4       	ldi	r24, 0x4C	; 76
     3a2:	90 e0       	ldi	r25, 0x00	; 0
     3a4:	08 95       	ret

	codeAdcSpan	= readCode(8);
	if( (codeAdcSpan < 0 ) || (codeAdcSpan > 9999)) return ERR_CODE_8;
     3a6:	8e e4       	ldi	r24, 0x4E	; 78
     3a8:	90 e0       	ldi	r25, 0x00	; 0
     3aa:	08 95       	ret

	codeAdcZero	= readCode(9);
	if( (codeAdcZero < 0 ) || (codeAdcZero > 9999)) return ERR_CODE_9;
     3ac:	8f e4       	ldi	r24, 0x4F	; 79
     3ae:	90 e0       	ldi	r25, 0x00	; 0
	
	return -1;
}
     3b0:	08 95       	ret

000003b2 <elaspMsecTime>:
}

uint8_t getCommand(void)
{
	return getButton();
}
     3b2:	cf 92       	push	r12
     3b4:	df 92       	push	r13
     3b6:	ef 92       	push	r14
     3b8:	ff 92       	push	r15
     3ba:	0f 93       	push	r16
     3bc:	1f 93       	push	r17
     3be:	00 91 84 01 	lds	r16, 0x0184	; 0x800184 <timerCounter2>
     3c2:	10 91 85 01 	lds	r17, 0x0185	; 0x800185 <timerCounter2+0x1>
     3c6:	20 91 86 01 	lds	r18, 0x0186	; 0x800186 <timerCounter2+0x2>
     3ca:	30 91 87 01 	lds	r19, 0x0187	; 0x800187 <timerCounter2+0x3>
     3ce:	06 17       	cp	r16, r22
     3d0:	17 07       	cpc	r17, r23
     3d2:	28 07       	cpc	r18, r24
     3d4:	39 07       	cpc	r19, r25
     3d6:	a8 f4       	brcc	.+42     	; 0x402 <__LOCK_REGION_LENGTH__+0x2>
     3d8:	00 91 84 01 	lds	r16, 0x0184	; 0x800184 <timerCounter2>
     3dc:	10 91 85 01 	lds	r17, 0x0185	; 0x800185 <timerCounter2+0x1>
     3e0:	20 91 86 01 	lds	r18, 0x0186	; 0x800186 <timerCounter2+0x2>
     3e4:	30 91 87 01 	lds	r19, 0x0187	; 0x800187 <timerCounter2+0x3>
     3e8:	01 50       	subi	r16, 0x01	; 1
     3ea:	11 09       	sbc	r17, r1
     3ec:	21 09       	sbc	r18, r1
     3ee:	31 09       	sbc	r19, r1
     3f0:	68 01       	movw	r12, r16
     3f2:	79 01       	movw	r14, r18
     3f4:	c6 1a       	sub	r12, r22
     3f6:	d7 0a       	sbc	r13, r23
     3f8:	e8 0a       	sbc	r14, r24
     3fa:	f9 0a       	sbc	r15, r25
     3fc:	c7 01       	movw	r24, r14
     3fe:	b6 01       	movw	r22, r12
     400:	10 c0       	rjmp	.+32     	; 0x422 <__LOCK_REGION_LENGTH__+0x22>
     402:	00 91 84 01 	lds	r16, 0x0184	; 0x800184 <timerCounter2>
     406:	10 91 85 01 	lds	r17, 0x0185	; 0x800185 <timerCounter2+0x1>
     40a:	20 91 86 01 	lds	r18, 0x0186	; 0x800186 <timerCounter2+0x2>
     40e:	30 91 87 01 	lds	r19, 0x0187	; 0x800187 <timerCounter2+0x3>
     412:	68 01       	movw	r12, r16
     414:	79 01       	movw	r14, r18
     416:	c6 1a       	sub	r12, r22
     418:	d7 0a       	sbc	r13, r23
     41a:	e8 0a       	sbc	r14, r24
     41c:	f9 0a       	sbc	r15, r25
     41e:	c7 01       	movw	r24, r14
     420:	b6 01       	movw	r22, r12
     422:	1f 91       	pop	r17
     424:	0f 91       	pop	r16
     426:	ff 90       	pop	r15
     428:	ef 90       	pop	r14
     42a:	df 90       	pop	r13
     42c:	cf 90       	pop	r12
     42e:	08 95       	ret

00000430 <__vector_10>:
     430:	1f 92       	push	r1
     432:	0f 92       	push	r0
     434:	0f b6       	in	r0, 0x3f	; 63
     436:	0f 92       	push	r0
     438:	11 24       	eor	r1, r1
     43a:	0b b6       	in	r0, 0x3b	; 59
     43c:	0f 92       	push	r0
     43e:	2f 93       	push	r18
     440:	3f 93       	push	r19
     442:	8f 93       	push	r24
     444:	9f 93       	push	r25
     446:	af 93       	push	r26
     448:	bf 93       	push	r27
     44a:	ef 93       	push	r30
     44c:	ff 93       	push	r31
     44e:	80 91 84 01 	lds	r24, 0x0184	; 0x800184 <timerCounter2>
     452:	90 91 85 01 	lds	r25, 0x0185	; 0x800185 <timerCounter2+0x1>
     456:	a0 91 86 01 	lds	r26, 0x0186	; 0x800186 <timerCounter2+0x2>
     45a:	b0 91 87 01 	lds	r27, 0x0187	; 0x800187 <timerCounter2+0x3>
     45e:	01 96       	adiw	r24, 0x01	; 1
     460:	a1 1d       	adc	r26, r1
     462:	b1 1d       	adc	r27, r1
     464:	80 93 84 01 	sts	0x0184, r24	; 0x800184 <timerCounter2>
     468:	90 93 85 01 	sts	0x0185, r25	; 0x800185 <timerCounter2+0x1>
     46c:	a0 93 86 01 	sts	0x0186, r26	; 0x800186 <timerCounter2+0x2>
     470:	b0 93 87 01 	sts	0x0187, r27	; 0x800187 <timerCounter2+0x3>
     474:	80 91 6a 01 	lds	r24, 0x016A	; 0x80016a <blinkCount.1899>
     478:	90 91 6b 01 	lds	r25, 0x016B	; 0x80016b <blinkCount.1899+0x1>
     47c:	81 39       	cpi	r24, 0x91	; 145
     47e:	21 e0       	ldi	r18, 0x01	; 1
     480:	92 07       	cpc	r25, r18
     482:	08 f0       	brcs	.+2      	; 0x486 <__vector_10+0x56>
     484:	50 c0       	rjmp	.+160    	; 0x526 <__vector_10+0xf6>
     486:	01 96       	adiw	r24, 0x01	; 1
     488:	90 93 6b 01 	sts	0x016B, r25	; 0x80016b <blinkCount.1899+0x1>
     48c:	80 93 6a 01 	sts	0x016A, r24	; 0x80016a <blinkCount.1899>
     490:	89 2b       	or	r24, r25
     492:	39 f4       	brne	.+14     	; 0x4a2 <__vector_10+0x72>
     494:	81 e0       	ldi	r24, 0x01	; 1
     496:	90 91 69 01 	lds	r25, 0x0169	; 0x800169 <blinkFlagState.1900>
     49a:	91 11       	cpse	r25, r1
     49c:	80 e0       	ldi	r24, 0x00	; 0
     49e:	80 93 69 01 	sts	0x0169, r24	; 0x800169 <blinkFlagState.1900>
     4a2:	80 91 68 01 	lds	r24, 0x0168	; 0x800168 <fndDigitCount.1898>
     4a6:	83 30       	cpi	r24, 0x03	; 3
     4a8:	10 f4       	brcc	.+4      	; 0x4ae <__vector_10+0x7e>
     4aa:	8f 5f       	subi	r24, 0xFF	; 255
     4ac:	01 c0       	rjmp	.+2      	; 0x4b0 <__vector_10+0x80>
     4ae:	80 e0       	ldi	r24, 0x00	; 0
     4b0:	80 93 68 01 	sts	0x0168, r24	; 0x800168 <fndDigitCount.1898>
     4b4:	e8 2f       	mov	r30, r24
     4b6:	f0 e0       	ldi	r31, 0x00	; 0
     4b8:	e7 55       	subi	r30, 0x57	; 87
     4ba:	fe 4f       	sbci	r31, 0xFE	; 254
     4bc:	90 81       	ld	r25, Z
     4be:	20 91 69 01 	lds	r18, 0x0169	; 0x800169 <blinkFlagState.1900>
     4c2:	22 23       	and	r18, r18
     4c4:	11 f1       	breq	.+68     	; 0x50a <__vector_10+0xda>
     4c6:	20 91 c9 01 	lds	r18, 0x01C9	; 0x8001c9 <blinkCmdFlag>
     4ca:	32 2f       	mov	r19, r18
     4cc:	3f 70       	andi	r19, 0x0F	; 15
     4ce:	3f 30       	cpi	r19, 0x0F	; 15
     4d0:	a9 f0       	breq	.+42     	; 0x4fc <__vector_10+0xcc>
     4d2:	81 11       	cpse	r24, r1
     4d4:	03 c0       	rjmp	.+6      	; 0x4dc <__vector_10+0xac>
     4d6:	20 ff       	sbrs	r18, 0
     4d8:	18 c0       	rjmp	.+48     	; 0x50a <__vector_10+0xda>
     4da:	12 c0       	rjmp	.+36     	; 0x500 <__vector_10+0xd0>
     4dc:	81 30       	cpi	r24, 0x01	; 1
     4de:	19 f4       	brne	.+6      	; 0x4e6 <__vector_10+0xb6>
     4e0:	21 ff       	sbrs	r18, 1
     4e2:	13 c0       	rjmp	.+38     	; 0x50a <__vector_10+0xda>
     4e4:	0f c0       	rjmp	.+30     	; 0x504 <__vector_10+0xd4>
     4e6:	82 30       	cpi	r24, 0x02	; 2
     4e8:	19 f4       	brne	.+6      	; 0x4f0 <__vector_10+0xc0>
     4ea:	22 ff       	sbrs	r18, 2
     4ec:	0e c0       	rjmp	.+28     	; 0x50a <__vector_10+0xda>
     4ee:	0c c0       	rjmp	.+24     	; 0x508 <__vector_10+0xd8>
     4f0:	83 30       	cpi	r24, 0x03	; 3
     4f2:	59 f4       	brne	.+22     	; 0x50a <__vector_10+0xda>
     4f4:	23 ff       	sbrs	r18, 3
     4f6:	09 c0       	rjmp	.+18     	; 0x50a <__vector_10+0xda>
     4f8:	90 e0       	ldi	r25, 0x00	; 0
     4fa:	07 c0       	rjmp	.+14     	; 0x50a <__vector_10+0xda>
     4fc:	90 e0       	ldi	r25, 0x00	; 0
     4fe:	05 c0       	rjmp	.+10     	; 0x50a <__vector_10+0xda>
     500:	90 e0       	ldi	r25, 0x00	; 0
     502:	03 c0       	rjmp	.+6      	; 0x50a <__vector_10+0xda>
     504:	90 e0       	ldi	r25, 0x00	; 0
     506:	01 c0       	rjmp	.+2      	; 0x50a <__vector_10+0xda>
     508:	90 e0       	ldi	r25, 0x00	; 0
     50a:	8b b3       	in	r24, 0x1b	; 27
     50c:	80 7f       	andi	r24, 0xF0	; 240
     50e:	8b bb       	out	0x1b, r24	; 27
     510:	2b b3       	in	r18, 0x1b	; 27
     512:	e0 91 68 01 	lds	r30, 0x0168	; 0x800168 <fndDigitCount.1898>
     516:	f0 e0       	ldi	r31, 0x00	; 0
     518:	e0 50       	subi	r30, 0x00	; 0
     51a:	ff 4f       	sbci	r31, 0xFF	; 255
     51c:	80 81       	ld	r24, Z
     51e:	82 2b       	or	r24, r18
     520:	8b bb       	out	0x1b, r24	; 27
     522:	95 bb       	out	0x15, r25	; 21
     524:	05 c0       	rjmp	.+10     	; 0x530 <__vector_10+0x100>
     526:	10 92 6b 01 	sts	0x016B, r1	; 0x80016b <blinkCount.1899+0x1>
     52a:	10 92 6a 01 	sts	0x016A, r1	; 0x80016a <blinkCount.1899>
     52e:	b2 cf       	rjmp	.-156    	; 0x494 <__vector_10+0x64>
     530:	ff 91       	pop	r31
     532:	ef 91       	pop	r30
     534:	bf 91       	pop	r27
     536:	af 91       	pop	r26
     538:	9f 91       	pop	r25
     53a:	8f 91       	pop	r24
     53c:	3f 91       	pop	r19
     53e:	2f 91       	pop	r18
     540:	0f 90       	pop	r0
     542:	0b be       	out	0x3b, r0	; 59
     544:	0f 90       	pop	r0
     546:	0f be       	out	0x3f, r0	; 63
     548:	0f 90       	pop	r0
     54a:	1f 90       	pop	r1
     54c:	18 95       	reti

0000054e <initADC>:
     54e:	80 e4       	ldi	r24, 0x40	; 64
     550:	87 b9       	out	0x07, r24	; 7
     552:	8f ef       	ldi	r24, 0xFF	; 255
     554:	86 b9       	out	0x06, r24	; 6
     556:	08 95       	ret

00000558 <__vector_21>:
     558:	1f 92       	push	r1
     55a:	0f 92       	push	r0
     55c:	0f b6       	in	r0, 0x3f	; 63
     55e:	0f 92       	push	r0
     560:	11 24       	eor	r1, r1
     562:	0b b6       	in	r0, 0x3b	; 59
     564:	0f 92       	push	r0
     566:	2f 93       	push	r18
     568:	3f 93       	push	r19
     56a:	4f 93       	push	r20
     56c:	5f 93       	push	r21
     56e:	6f 93       	push	r22
     570:	8f 93       	push	r24
     572:	9f 93       	push	r25
     574:	af 93       	push	r26
     576:	bf 93       	push	r27
     578:	ef 93       	push	r30
     57a:	ff 93       	push	r31
     57c:	64 b1       	in	r22, 0x04	; 4
     57e:	85 b1       	in	r24, 0x05	; 5
     580:	40 91 66 01 	lds	r20, 0x0166	; 0x800166 <adcRingCount.1909>
     584:	50 91 67 01 	lds	r21, 0x0167	; 0x800167 <adcRingCount.1909+0x1>
     588:	fa 01       	movw	r30, r20
     58a:	ee 0f       	add	r30, r30
     58c:	ff 1f       	adc	r31, r31
     58e:	ea 5b       	subi	r30, 0xBA	; 186
     590:	fe 4f       	sbci	r31, 0xFE	; 254
     592:	20 91 c5 01 	lds	r18, 0x01C5	; 0x8001c5 <adcWeight>
     596:	30 91 c6 01 	lds	r19, 0x01C6	; 0x8001c6 <adcWeight+0x1>
     59a:	a0 81       	ld	r26, Z
     59c:	b1 81       	ldd	r27, Z+1	; 0x01
     59e:	2a 1b       	sub	r18, r26
     5a0:	3b 0b       	sbc	r19, r27
     5a2:	a0 91 b0 01 	lds	r26, 0x01B0	; 0x8001b0 <adcWeightIn>
     5a6:	b0 91 b1 01 	lds	r27, 0x01B1	; 0x8001b1 <adcWeightIn+0x1>
     5aa:	b1 83       	std	Z+1, r27	; 0x01
     5ac:	a0 83       	st	Z, r26
     5ae:	83 70       	andi	r24, 0x03	; 3
     5b0:	90 e0       	ldi	r25, 0x00	; 0
     5b2:	98 2f       	mov	r25, r24
     5b4:	88 27       	eor	r24, r24
     5b6:	86 0f       	add	r24, r22
     5b8:	91 1d       	adc	r25, r1
     5ba:	82 0f       	add	r24, r18
     5bc:	93 1f       	adc	r25, r19
     5be:	90 93 c6 01 	sts	0x01C6, r25	; 0x8001c6 <adcWeight+0x1>
     5c2:	80 93 c5 01 	sts	0x01C5, r24	; 0x8001c5 <adcWeight>
     5c6:	4f 30       	cpi	r20, 0x0F	; 15
     5c8:	51 05       	cpc	r21, r1
     5ca:	1c f4       	brge	.+6      	; 0x5d2 <__vector_21+0x7a>
     5cc:	4f 5f       	subi	r20, 0xFF	; 255
     5ce:	5f 4f       	sbci	r21, 0xFF	; 255
     5d0:	02 c0       	rjmp	.+4      	; 0x5d6 <__vector_21+0x7e>
     5d2:	40 e0       	ldi	r20, 0x00	; 0
     5d4:	50 e0       	ldi	r21, 0x00	; 0
     5d6:	50 93 67 01 	sts	0x0167, r21	; 0x800167 <adcRingCount.1909+0x1>
     5da:	40 93 66 01 	sts	0x0166, r20	; 0x800166 <adcRingCount.1909>
     5de:	9c 01       	movw	r18, r24
     5e0:	99 23       	and	r25, r25
     5e2:	14 f4       	brge	.+4      	; 0x5e8 <__vector_21+0x90>
     5e4:	21 5f       	subi	r18, 0xF1	; 241
     5e6:	3f 4f       	sbci	r19, 0xFF	; 255
     5e8:	35 95       	asr	r19
     5ea:	27 95       	ror	r18
     5ec:	35 95       	asr	r19
     5ee:	27 95       	ror	r18
     5f0:	35 95       	asr	r19
     5f2:	27 95       	ror	r18
     5f4:	35 95       	asr	r19
     5f6:	27 95       	ror	r18
     5f8:	30 93 b1 01 	sts	0x01B1, r19	; 0x8001b1 <adcWeightIn+0x1>
     5fc:	20 93 b0 01 	sts	0x01B0, r18	; 0x8001b0 <adcWeightIn>
     600:	36 9a       	sbi	0x06, 6	; 6
     602:	ff 91       	pop	r31
     604:	ef 91       	pop	r30
     606:	bf 91       	pop	r27
     608:	af 91       	pop	r26
     60a:	9f 91       	pop	r25
     60c:	8f 91       	pop	r24
     60e:	6f 91       	pop	r22
     610:	5f 91       	pop	r21
     612:	4f 91       	pop	r20
     614:	3f 91       	pop	r19
     616:	2f 91       	pop	r18
     618:	0f 90       	pop	r0
     61a:	0b be       	out	0x3b, r0	; 59
     61c:	0f 90       	pop	r0
     61e:	0f be       	out	0x3f, r0	; 63
     620:	0f 90       	pop	r0
     622:	1f 90       	pop	r1
     624:	18 95       	reti

00000626 <getButton>:
     626:	86 b3       	in	r24, 0x16	; 22
     628:	8f 60       	ori	r24, 0x0F	; 15
     62a:	8f 3f       	cpi	r24, 0xFF	; 255
     62c:	c1 f0       	breq	.+48     	; 0x65e <getButton+0x38>
     62e:	2f ef       	ldi	r18, 0xFF	; 255
     630:	39 ef       	ldi	r19, 0xF9	; 249
     632:	80 e0       	ldi	r24, 0x00	; 0
     634:	21 50       	subi	r18, 0x01	; 1
     636:	30 40       	sbci	r19, 0x00	; 0
     638:	80 40       	sbci	r24, 0x00	; 0
     63a:	e1 f7       	brne	.-8      	; 0x634 <getButton+0xe>
     63c:	00 c0       	rjmp	.+0      	; 0x63e <getButton+0x18>
     63e:	00 00       	nop
     640:	86 b3       	in	r24, 0x16	; 22
     642:	8f 60       	ori	r24, 0x0F	; 15
     644:	8f 3f       	cpi	r24, 0xFF	; 255
     646:	59 f0       	breq	.+22     	; 0x65e <getButton+0x38>
     648:	86 b3       	in	r24, 0x16	; 22
     64a:	8f 60       	ori	r24, 0x0F	; 15
     64c:	9f ef       	ldi	r25, 0xFF	; 255
     64e:	21 ee       	ldi	r18, 0xE1	; 225
     650:	34 e0       	ldi	r19, 0x04	; 4
     652:	91 50       	subi	r25, 0x01	; 1
     654:	20 40       	sbci	r18, 0x00	; 0
     656:	30 40       	sbci	r19, 0x00	; 0
     658:	e1 f7       	brne	.-8      	; 0x652 <getButton+0x2c>
     65a:	00 c0       	rjmp	.+0      	; 0x65c <getButton+0x36>
     65c:	00 00       	nop
     65e:	08 95       	ret

00000660 <displayWeight>:

uint8_t tmpDigit[4];

void displayWeight(int16_t weightIn)
{
     660:	cf 93       	push	r28
     662:	df 93       	push	r29
     664:	9c 01       	movw	r18, r24
	int i;
	int16_t tmpWeight;
	
	// display loadWeight
	if(weightIn < 0 ){
     666:	99 23       	and	r25, r25
     668:	0c f0       	brlt	.+2      	; 0x66c <displayWeight+0xc>
     66a:	4c c0       	rjmp	.+152    	; 0x704 <displayWeight+0xa4>
		tmpWeight = -weightIn;
     66c:	31 95       	neg	r19
     66e:	21 95       	neg	r18
     670:	31 09       	sbc	r19, r1
		if(tmpWeight > 998 ){ 
     672:	27 3e       	cpi	r18, 0xE7	; 231
     674:	83 e0       	ldi	r24, 0x03	; 3
     676:	38 07       	cpc	r19, r24
     678:	3c f0       	brlt	.+14     	; 0x688 <displayWeight+0x28>
			tmpDigit[2] = 9;
     67a:	e0 ec       	ldi	r30, 0xC0	; 192
     67c:	f1 e0       	ldi	r31, 0x01	; 1
     67e:	89 e0       	ldi	r24, 0x09	; 9
     680:	82 83       	std	Z+2, r24	; 0x02
			tmpDigit[1] = 9;
     682:	81 83       	std	Z+1, r24	; 0x01
			tmpDigit[0] = 9;
     684:	80 83       	st	Z, r24
     686:	13 c0       	rjmp	.+38     	; 0x6ae <displayWeight+0x4e>
		} else {
			tmpDigit[2] = tmpWeight/100;
     688:	e0 ec       	ldi	r30, 0xC0	; 192
     68a:	f1 e0       	ldi	r31, 0x01	; 1
     68c:	c9 01       	movw	r24, r18
     68e:	64 e6       	ldi	r22, 0x64	; 100
     690:	70 e0       	ldi	r23, 0x00	; 0
     692:	0e 94 b2 0d 	call	0x1b64	; 0x1b64 <__divmodhi4>
     696:	62 83       	std	Z+2, r22	; 0x02
			tmpDigit[1] = (tmpWeight%100)/10;
     698:	ca e0       	ldi	r28, 0x0A	; 10
     69a:	d0 e0       	ldi	r29, 0x00	; 0
     69c:	be 01       	movw	r22, r28
     69e:	0e 94 b2 0d 	call	0x1b64	; 0x1b64 <__divmodhi4>
     6a2:	61 83       	std	Z+1, r22	; 0x01
			tmpDigit[0] = tmpWeight%10;
     6a4:	c9 01       	movw	r24, r18
     6a6:	be 01       	movw	r22, r28
     6a8:	0e 94 b2 0d 	call	0x1b64	; 0x1b64 <__divmodhi4>
     6ac:	80 83       	st	Z, r24
		}
		fndData[3] = 0x40;
     6ae:	a9 ea       	ldi	r26, 0xA9	; 169
     6b0:	b1 e0       	ldi	r27, 0x01	; 1
     6b2:	80 e4       	ldi	r24, 0x40	; 64
     6b4:	13 96       	adiw	r26, 0x03	; 3
     6b6:	8c 93       	st	X, r24
     6b8:	13 97       	sbiw	r26, 0x03	; 3
		for(i = 0 ; i < 3 ; i++ ) fndData[i] = fndTableNum[tmpDigit[i]];
     6ba:	c0 ec       	ldi	r28, 0xC0	; 192
     6bc:	d1 e0       	ldi	r29, 0x01	; 1
     6be:	e8 81       	ld	r30, Y
     6c0:	f0 e0       	ldi	r31, 0x00	; 0
     6c2:	ec 5f       	subi	r30, 0xFC	; 252
     6c4:	fe 4f       	sbci	r31, 0xFE	; 254
     6c6:	80 81       	ld	r24, Z
     6c8:	8c 93       	st	X, r24
     6ca:	e9 81       	ldd	r30, Y+1	; 0x01
     6cc:	f0 e0       	ldi	r31, 0x00	; 0
     6ce:	ec 5f       	subi	r30, 0xFC	; 252
     6d0:	fe 4f       	sbci	r31, 0xFE	; 254
     6d2:	80 81       	ld	r24, Z
     6d4:	11 96       	adiw	r26, 0x01	; 1
     6d6:	8c 93       	st	X, r24
     6d8:	11 97       	sbiw	r26, 0x01	; 1
     6da:	ea 81       	ldd	r30, Y+2	; 0x02
     6dc:	f0 e0       	ldi	r31, 0x00	; 0
     6de:	ec 5f       	subi	r30, 0xFC	; 252
     6e0:	fe 4f       	sbci	r31, 0xFE	; 254
     6e2:	80 81       	ld	r24, Z
     6e4:	12 96       	adiw	r26, 0x02	; 2
     6e6:	8c 93       	st	X, r24
		if( codePoint != 0 ) fndData[codePoint] |= 0x80;
     6e8:	80 91 92 01 	lds	r24, 0x0192	; 0x800192 <codePoint>
     6ec:	90 91 93 01 	lds	r25, 0x0193	; 0x800193 <codePoint+0x1>
     6f0:	00 97       	sbiw	r24, 0x00	; 0
     6f2:	09 f4       	brne	.+2      	; 0x6f6 <displayWeight+0x96>
     6f4:	87 c0       	rjmp	.+270    	; 0x804 <displayWeight+0x1a4>
     6f6:	fc 01       	movw	r30, r24
     6f8:	e7 55       	subi	r30, 0x57	; 87
     6fa:	fe 4f       	sbci	r31, 0xFE	; 254
     6fc:	80 81       	ld	r24, Z
     6fe:	80 68       	ori	r24, 0x80	; 128
     700:	80 83       	st	Z, r24
     702:	80 c0       	rjmp	.+256    	; 0x804 <displayWeight+0x1a4>
		return;
	}

	if(weightIn > 9999 ){
     704:	20 31       	cpi	r18, 0x10	; 16
     706:	87 e2       	ldi	r24, 0x27	; 39
     708:	38 07       	cpc	r19, r24
     70a:	44 f0       	brlt	.+16     	; 0x71c <displayWeight+0xbc>
		tmpDigit[3] = 9;
     70c:	e0 ec       	ldi	r30, 0xC0	; 192
     70e:	f1 e0       	ldi	r31, 0x01	; 1
     710:	89 e0       	ldi	r24, 0x09	; 9
     712:	83 83       	std	Z+3, r24	; 0x03
		tmpDigit[2] = 9;
     714:	82 83       	std	Z+2, r24	; 0x02
		tmpDigit[1] = 9;
     716:	81 83       	std	Z+1, r24	; 0x01
		tmpDigit[0] = 9;		
     718:	80 83       	st	Z, r24
     71a:	5e c0       	rjmp	.+188    	; 0x7d8 <displayWeight+0x178>
	} else {
		tmpDigit[3] = weightIn/ 1000;
     71c:	e0 ec       	ldi	r30, 0xC0	; 192
     71e:	f1 e0       	ldi	r31, 0x01	; 1
     720:	c9 01       	movw	r24, r18
     722:	68 ee       	ldi	r22, 0xE8	; 232
     724:	73 e0       	ldi	r23, 0x03	; 3
     726:	0e 94 b2 0d 	call	0x1b64	; 0x1b64 <__divmodhi4>
     72a:	63 83       	std	Z+3, r22	; 0x03
		tmpDigit[2] = (weightIn%1000)/100;
     72c:	c4 e6       	ldi	r28, 0x64	; 100
     72e:	d0 e0       	ldi	r29, 0x00	; 0
     730:	be 01       	movw	r22, r28
     732:	0e 94 b2 0d 	call	0x1b64	; 0x1b64 <__divmodhi4>
     736:	62 83       	std	Z+2, r22	; 0x02
		tmpDigit[1] = (weightIn%100)/10;
     738:	c9 01       	movw	r24, r18
     73a:	be 01       	movw	r22, r28
     73c:	0e 94 b2 0d 	call	0x1b64	; 0x1b64 <__divmodhi4>
     740:	ca e0       	ldi	r28, 0x0A	; 10
     742:	d0 e0       	ldi	r29, 0x00	; 0
     744:	be 01       	movw	r22, r28
     746:	0e 94 b2 0d 	call	0x1b64	; 0x1b64 <__divmodhi4>
     74a:	61 83       	std	Z+1, r22	; 0x01
		tmpDigit[0] = weightIn%10;
     74c:	c9 01       	movw	r24, r18
     74e:	be 01       	movw	r22, r28
     750:	0e 94 b2 0d 	call	0x1b64	; 0x1b64 <__divmodhi4>
     754:	80 83       	st	Z, r24
     756:	40 c0       	rjmp	.+128    	; 0x7d8 <displayWeight+0x178>
	}
	
	for(i = 0 ; i < 4 ; i++ ) tmpDigit[i] = fndTableNum[tmpDigit[i]];
     758:	ec 91       	ld	r30, X
     75a:	f0 e0       	ldi	r31, 0x00	; 0
     75c:	ec 5f       	subi	r30, 0xFC	; 252
     75e:	fe 4f       	sbci	r31, 0xFE	; 254
     760:	80 81       	ld	r24, Z
     762:	8d 93       	st	X+, r24
     764:	a2 17       	cp	r26, r18
     766:	b3 07       	cpc	r27, r19
     768:	b9 f7       	brne	.-18     	; 0x758 <displayWeight+0xf8>
	
	if(codePoint <= 0 ){
     76a:	80 91 92 01 	lds	r24, 0x0192	; 0x800192 <codePoint>
     76e:	90 91 93 01 	lds	r25, 0x0193	; 0x800193 <codePoint+0x1>
     772:	18 16       	cp	r1, r24
     774:	19 06       	cpc	r1, r25
     776:	8c f0       	brlt	.+34     	; 0x79a <displayWeight+0x13a>
		if(tmpDigit[3] == fndTableNum[0] ) {
     778:	80 91 c3 01 	lds	r24, 0x01C3	; 0x8001c3 <tmpDigit+0x3>
     77c:	8f 33       	cpi	r24, 0x3F	; 63
     77e:	89 f5       	brne	.+98     	; 0x7e2 <displayWeight+0x182>
			tmpDigit[3] = 0x00;
     780:	e0 ec       	ldi	r30, 0xC0	; 192
     782:	f1 e0       	ldi	r31, 0x01	; 1
     784:	13 82       	std	Z+3, r1	; 0x03
			if(tmpDigit[2] == fndTableNum[0] ) {
     786:	82 81       	ldd	r24, Z+2	; 0x02
     788:	8f 33       	cpi	r24, 0x3F	; 63
     78a:	59 f5       	brne	.+86     	; 0x7e2 <displayWeight+0x182>
				tmpDigit[2] = 0x00;
     78c:	12 82       	std	Z+2, r1	; 0x02
				if(tmpDigit[1] == fndTableNum[0] ) {
     78e:	81 81       	ldd	r24, Z+1	; 0x01
     790:	8f 33       	cpi	r24, 0x3F	; 63
     792:	39 f5       	brne	.+78     	; 0x7e2 <displayWeight+0x182>
					tmpDigit[1] = 0x00;
     794:	10 92 c1 01 	sts	0x01C1, r1	; 0x8001c1 <tmpDigit+0x1>
     798:	24 c0       	rjmp	.+72     	; 0x7e2 <displayWeight+0x182>
				}
			}
		}
	}
	else if(codePoint == 1 ){
     79a:	81 30       	cpi	r24, 0x01	; 1
     79c:	91 05       	cpc	r25, r1
     79e:	79 f4       	brne	.+30     	; 0x7be <displayWeight+0x15e>
		tmpDigit[1] |= 0x80;
     7a0:	e0 ec       	ldi	r30, 0xC0	; 192
     7a2:	f1 e0       	ldi	r31, 0x01	; 1
     7a4:	81 81       	ldd	r24, Z+1	; 0x01
     7a6:	80 68       	ori	r24, 0x80	; 128
     7a8:	81 83       	std	Z+1, r24	; 0x01
		if(tmpDigit[3] == fndTableNum[0] ) {
     7aa:	83 81       	ldd	r24, Z+3	; 0x03
     7ac:	8f 33       	cpi	r24, 0x3F	; 63
     7ae:	c9 f4       	brne	.+50     	; 0x7e2 <displayWeight+0x182>
			tmpDigit[3] = 0x00;
     7b0:	13 82       	std	Z+3, r1	; 0x03
			if(tmpDigit[2] == fndTableNum[0] )
     7b2:	82 81       	ldd	r24, Z+2	; 0x02
     7b4:	8f 33       	cpi	r24, 0x3F	; 63
     7b6:	a9 f4       	brne	.+42     	; 0x7e2 <displayWeight+0x182>
				tmpDigit[2] = 0x00;
     7b8:	10 92 c2 01 	sts	0x01C2, r1	; 0x8001c2 <tmpDigit+0x2>
     7bc:	12 c0       	rjmp	.+36     	; 0x7e2 <displayWeight+0x182>
		}
	}
	else if(codePoint == 2 ){
     7be:	02 97       	sbiw	r24, 0x02	; 2
     7c0:	81 f4       	brne	.+32     	; 0x7e2 <displayWeight+0x182>
		tmpDigit[2] |= 0x80;
     7c2:	e0 ec       	ldi	r30, 0xC0	; 192
     7c4:	f1 e0       	ldi	r31, 0x01	; 1
     7c6:	82 81       	ldd	r24, Z+2	; 0x02
     7c8:	80 68       	ori	r24, 0x80	; 128
     7ca:	82 83       	std	Z+2, r24	; 0x02
		if(tmpDigit[3] == fndTableNum[0] ) {
     7cc:	83 81       	ldd	r24, Z+3	; 0x03
     7ce:	8f 33       	cpi	r24, 0x3F	; 63
     7d0:	41 f4       	brne	.+16     	; 0x7e2 <displayWeight+0x182>
			tmpDigit[3] = 0x00;
     7d2:	10 92 c3 01 	sts	0x01C3, r1	; 0x8001c3 <tmpDigit+0x3>
     7d6:	05 c0       	rjmp	.+10     	; 0x7e2 <displayWeight+0x182>
     7d8:	a0 ec       	ldi	r26, 0xC0	; 192
     7da:	b1 e0       	ldi	r27, 0x01	; 1
     7dc:	24 ec       	ldi	r18, 0xC4	; 196
     7de:	31 e0       	ldi	r19, 0x01	; 1
     7e0:	bb cf       	rjmp	.-138    	; 0x758 <displayWeight+0xf8>
		}
	}

	for(i = 0 ; i < 4 ; i++ ) fndData[i] = tmpDigit[i];
     7e2:	e9 ea       	ldi	r30, 0xA9	; 169
     7e4:	f1 e0       	ldi	r31, 0x01	; 1
     7e6:	a0 ec       	ldi	r26, 0xC0	; 192
     7e8:	b1 e0       	ldi	r27, 0x01	; 1
     7ea:	8c 91       	ld	r24, X
     7ec:	80 83       	st	Z, r24
     7ee:	11 96       	adiw	r26, 0x01	; 1
     7f0:	8c 91       	ld	r24, X
     7f2:	11 97       	sbiw	r26, 0x01	; 1
     7f4:	81 83       	std	Z+1, r24	; 0x01
     7f6:	12 96       	adiw	r26, 0x02	; 2
     7f8:	8c 91       	ld	r24, X
     7fa:	12 97       	sbiw	r26, 0x02	; 2
     7fc:	82 83       	std	Z+2, r24	; 0x02
     7fe:	13 96       	adiw	r26, 0x03	; 3
     800:	8c 91       	ld	r24, X
     802:	83 83       	std	Z+3, r24	; 0x03
}
     804:	df 91       	pop	r29
     806:	cf 91       	pop	r28
     808:	08 95       	ret

0000080a <displayWeight1>:

void displayWeight1(int16_t weightIn)
{
     80a:	ef 92       	push	r14
     80c:	ff 92       	push	r15
     80e:	0f 93       	push	r16
     810:	1f 93       	push	r17
     812:	cf 93       	push	r28
     814:	df 93       	push	r29
     816:	9c 01       	movw	r18, r24
	int i;
	int16_t tmpWeight;
	
	// display loadWeight
	if(weightIn < 0 ){
     818:	99 23       	and	r25, r25
     81a:	0c f0       	brlt	.+2      	; 0x81e <displayWeight1+0x14>
     81c:	4a c0       	rjmp	.+148    	; 0x8b2 <displayWeight1+0xa8>
		tmpWeight = -weightIn;
     81e:	31 95       	neg	r19
     820:	21 95       	neg	r18
     822:	31 09       	sbc	r19, r1
		if(tmpWeight > 998 ){
     824:	27 3e       	cpi	r18, 0xE7	; 231
     826:	83 e0       	ldi	r24, 0x03	; 3
     828:	38 07       	cpc	r19, r24
     82a:	4c f0       	brlt	.+18     	; 0x83e <displayWeight1+0x34>
			tmpDigit[3] = 0x40;
     82c:	e0 ec       	ldi	r30, 0xC0	; 192
     82e:	f1 e0       	ldi	r31, 0x01	; 1
     830:	80 e4       	ldi	r24, 0x40	; 64
     832:	83 83       	std	Z+3, r24	; 0x03
			tmpDigit[2] = fndTableNum[9];
     834:	87 e6       	ldi	r24, 0x67	; 103
     836:	82 83       	std	Z+2, r24	; 0x02
			tmpDigit[1] = fndTableNum[9];
     838:	81 83       	std	Z+1, r24	; 0x01
			tmpDigit[0] = fndTableNum[9];
     83a:	80 83       	st	Z, r24
     83c:	2c c0       	rjmp	.+88     	; 0x896 <displayWeight1+0x8c>
			
			} else {
			tmpDigit[3] = 0x40;
     83e:	e0 ec       	ldi	r30, 0xC0	; 192
     840:	f1 e0       	ldi	r31, 0x01	; 1
     842:	80 e4       	ldi	r24, 0x40	; 64
     844:	83 83       	std	Z+3, r24	; 0x03
			tmpDigit[2] = tmpWeight/100;
     846:	c9 01       	movw	r24, r18
     848:	64 e6       	ldi	r22, 0x64	; 100
     84a:	70 e0       	ldi	r23, 0x00	; 0
     84c:	0e 94 b2 0d 	call	0x1b64	; 0x1b64 <__divmodhi4>
     850:	7b 01       	movw	r14, r22
     852:	62 83       	std	Z+2, r22	; 0x02
			tmpDigit[1] = (tmpWeight%100)/10;
     854:	0a e0       	ldi	r16, 0x0A	; 10
     856:	10 e0       	ldi	r17, 0x00	; 0
     858:	b8 01       	movw	r22, r16
     85a:	0e 94 b2 0d 	call	0x1b64	; 0x1b64 <__divmodhi4>
     85e:	eb 01       	movw	r28, r22
     860:	61 83       	std	Z+1, r22	; 0x01
			tmpDigit[0] = tmpWeight%10;
     862:	c9 01       	movw	r24, r18
     864:	b8 01       	movw	r22, r16
     866:	0e 94 b2 0d 	call	0x1b64	; 0x1b64 <__divmodhi4>
     86a:	80 83       	st	Z, r24
			for(i = 0 ; i < 3 ; i++ ) fndData[i] = fndTableNum[tmpDigit[i]];
     86c:	29 ea       	ldi	r18, 0xA9	; 169
     86e:	31 e0       	ldi	r19, 0x01	; 1
     870:	99 27       	eor	r25, r25
     872:	dc 01       	movw	r26, r24
     874:	ac 5f       	subi	r26, 0xFC	; 252
     876:	be 4f       	sbci	r27, 0xFE	; 254
     878:	8c 91       	ld	r24, X
     87a:	f9 01       	movw	r30, r18
     87c:	80 83       	st	Z, r24
     87e:	dd 27       	eor	r29, r29
     880:	cc 5f       	subi	r28, 0xFC	; 252
     882:	de 4f       	sbci	r29, 0xFE	; 254
     884:	88 81       	ld	r24, Y
     886:	81 83       	std	Z+1, r24	; 0x01
     888:	f7 01       	movw	r30, r14
     88a:	ff 27       	eor	r31, r31
     88c:	ec 5f       	subi	r30, 0xFC	; 252
     88e:	fe 4f       	sbci	r31, 0xFE	; 254
     890:	80 81       	ld	r24, Z
     892:	f9 01       	movw	r30, r18
     894:	82 83       	std	Z+2, r24	; 0x02
		}
		if( codePoint != 0 ) fndData[codePoint] |= 0x80;
     896:	80 91 92 01 	lds	r24, 0x0192	; 0x800192 <codePoint>
     89a:	90 91 93 01 	lds	r25, 0x0193	; 0x800193 <codePoint+0x1>
     89e:	00 97       	sbiw	r24, 0x00	; 0
     8a0:	09 f4       	brne	.+2      	; 0x8a4 <displayWeight1+0x9a>
     8a2:	64 c0       	rjmp	.+200    	; 0x96c <displayWeight1+0x162>
     8a4:	fc 01       	movw	r30, r24
     8a6:	e7 55       	subi	r30, 0x57	; 87
     8a8:	fe 4f       	sbci	r31, 0xFE	; 254
     8aa:	80 81       	ld	r24, Z
     8ac:	80 68       	ori	r24, 0x80	; 128
     8ae:	80 83       	st	Z, r24
     8b0:	5d c0       	rjmp	.+186    	; 0x96c <displayWeight1+0x162>
		return;
	}

	if(weightIn > 9999 ){
     8b2:	80 31       	cpi	r24, 0x10	; 16
     8b4:	f7 e2       	ldi	r31, 0x27	; 39
     8b6:	9f 07       	cpc	r25, r31
     8b8:	44 f0       	brlt	.+16     	; 0x8ca <displayWeight1+0xc0>
		tmpDigit[3] = 9;
     8ba:	e0 ec       	ldi	r30, 0xC0	; 192
     8bc:	f1 e0       	ldi	r31, 0x01	; 1
     8be:	89 e0       	ldi	r24, 0x09	; 9
     8c0:	83 83       	std	Z+3, r24	; 0x03
		tmpDigit[2] = 9;
     8c2:	82 83       	std	Z+2, r24	; 0x02
		tmpDigit[1] = 9;
     8c4:	81 83       	std	Z+1, r24	; 0x01
		tmpDigit[0] = 9;
     8c6:	80 83       	st	Z, r24
     8c8:	3b c0       	rjmp	.+118    	; 0x940 <displayWeight1+0x136>
		} else {
		tmpDigit[3] = weightIn/ 1000;
     8ca:	e0 ec       	ldi	r30, 0xC0	; 192
     8cc:	f1 e0       	ldi	r31, 0x01	; 1
     8ce:	68 ee       	ldi	r22, 0xE8	; 232
     8d0:	73 e0       	ldi	r23, 0x03	; 3
     8d2:	0e 94 b2 0d 	call	0x1b64	; 0x1b64 <__divmodhi4>
     8d6:	63 83       	std	Z+3, r22	; 0x03
		tmpDigit[2] = (weightIn%1000)/100;
     8d8:	c4 e6       	ldi	r28, 0x64	; 100
     8da:	d0 e0       	ldi	r29, 0x00	; 0
     8dc:	be 01       	movw	r22, r28
     8de:	0e 94 b2 0d 	call	0x1b64	; 0x1b64 <__divmodhi4>
     8e2:	62 83       	std	Z+2, r22	; 0x02
		tmpDigit[1] = (weightIn%100)/10;
     8e4:	c9 01       	movw	r24, r18
     8e6:	be 01       	movw	r22, r28
     8e8:	0e 94 b2 0d 	call	0x1b64	; 0x1b64 <__divmodhi4>
     8ec:	ca e0       	ldi	r28, 0x0A	; 10
     8ee:	d0 e0       	ldi	r29, 0x00	; 0
     8f0:	be 01       	movw	r22, r28
     8f2:	0e 94 b2 0d 	call	0x1b64	; 0x1b64 <__divmodhi4>
     8f6:	61 83       	std	Z+1, r22	; 0x01
		tmpDigit[0] = weightIn%10;
     8f8:	c9 01       	movw	r24, r18
     8fa:	be 01       	movw	r22, r28
     8fc:	0e 94 b2 0d 	call	0x1b64	; 0x1b64 <__divmodhi4>
     900:	80 83       	st	Z, r24
     902:	1e c0       	rjmp	.+60     	; 0x940 <displayWeight1+0x136>
	}
	
	for(i = 0 ; i < 4 ; i++ ) tmpDigit[i] = fndTableNum[tmpDigit[i]];
     904:	ec 91       	ld	r30, X
     906:	f0 e0       	ldi	r31, 0x00	; 0
     908:	ec 5f       	subi	r30, 0xFC	; 252
     90a:	fe 4f       	sbci	r31, 0xFE	; 254
     90c:	80 81       	ld	r24, Z
     90e:	8d 93       	st	X+, r24
     910:	a2 17       	cp	r26, r18
     912:	b3 07       	cpc	r27, r19
     914:	b9 f7       	brne	.-18     	; 0x904 <displayWeight1+0xfa>
	
	if(codePoint == 1 )			tmpDigit[1] |= 0x80;
     916:	80 91 92 01 	lds	r24, 0x0192	; 0x800192 <codePoint>
     91a:	90 91 93 01 	lds	r25, 0x0193	; 0x800193 <codePoint+0x1>
     91e:	81 30       	cpi	r24, 0x01	; 1
     920:	91 05       	cpc	r25, r1
     922:	31 f4       	brne	.+12     	; 0x930 <displayWeight1+0x126>
     924:	e0 ec       	ldi	r30, 0xC0	; 192
     926:	f1 e0       	ldi	r31, 0x01	; 1
     928:	81 81       	ldd	r24, Z+1	; 0x01
     92a:	80 68       	ori	r24, 0x80	; 128
     92c:	81 83       	std	Z+1, r24	; 0x01
     92e:	0d c0       	rjmp	.+26     	; 0x94a <displayWeight1+0x140>
	else if(codePoint == 2 )	tmpDigit[2] |= 0x80;
     930:	02 97       	sbiw	r24, 0x02	; 2
     932:	59 f4       	brne	.+22     	; 0x94a <displayWeight1+0x140>
     934:	e0 ec       	ldi	r30, 0xC0	; 192
     936:	f1 e0       	ldi	r31, 0x01	; 1
     938:	82 81       	ldd	r24, Z+2	; 0x02
     93a:	80 68       	ori	r24, 0x80	; 128
     93c:	82 83       	std	Z+2, r24	; 0x02
     93e:	05 c0       	rjmp	.+10     	; 0x94a <displayWeight1+0x140>
     940:	a0 ec       	ldi	r26, 0xC0	; 192
     942:	b1 e0       	ldi	r27, 0x01	; 1
     944:	24 ec       	ldi	r18, 0xC4	; 196
     946:	31 e0       	ldi	r19, 0x01	; 1
     948:	dd cf       	rjmp	.-70     	; 0x904 <displayWeight1+0xfa>

	for(i = 0 ; i < 4 ; i++ ) fndData[i] = tmpDigit[i];
     94a:	e9 ea       	ldi	r30, 0xA9	; 169
     94c:	f1 e0       	ldi	r31, 0x01	; 1
     94e:	a0 ec       	ldi	r26, 0xC0	; 192
     950:	b1 e0       	ldi	r27, 0x01	; 1
     952:	8c 91       	ld	r24, X
     954:	80 83       	st	Z, r24
     956:	11 96       	adiw	r26, 0x01	; 1
     958:	8c 91       	ld	r24, X
     95a:	11 97       	sbiw	r26, 0x01	; 1
     95c:	81 83       	std	Z+1, r24	; 0x01
     95e:	12 96       	adiw	r26, 0x02	; 2
     960:	8c 91       	ld	r24, X
     962:	12 97       	sbiw	r26, 0x02	; 2
     964:	82 83       	std	Z+2, r24	; 0x02
     966:	13 96       	adiw	r26, 0x03	; 3
     968:	8c 91       	ld	r24, X
     96a:	83 83       	std	Z+3, r24	; 0x03
}
     96c:	df 91       	pop	r29
     96e:	cf 91       	pop	r28
     970:	1f 91       	pop	r17
     972:	0f 91       	pop	r16
     974:	ff 90       	pop	r15
     976:	ef 90       	pop	r14
     978:	08 95       	ret

0000097a <displayNumber1>:

void displayNumber1(int16_t weightIn)
{
     97a:	ef 92       	push	r14
     97c:	ff 92       	push	r15
     97e:	0f 93       	push	r16
     980:	1f 93       	push	r17
     982:	cf 93       	push	r28
     984:	df 93       	push	r29
     986:	9c 01       	movw	r18, r24
	int i;
	int16_t tmpWeight;
	
	// display loadWeight
	if(weightIn < 0 ){
     988:	99 23       	and	r25, r25
     98a:	0c f0       	brlt	.+2      	; 0x98e <displayNumber1+0x14>
     98c:	4a c0       	rjmp	.+148    	; 0xa22 <displayNumber1+0xa8>
		tmpWeight = -weightIn;
     98e:	31 95       	neg	r19
     990:	21 95       	neg	r18
     992:	31 09       	sbc	r19, r1
		if(tmpWeight > 998 ){
     994:	27 3e       	cpi	r18, 0xE7	; 231
     996:	83 e0       	ldi	r24, 0x03	; 3
     998:	38 07       	cpc	r19, r24
     99a:	4c f0       	brlt	.+18     	; 0x9ae <displayNumber1+0x34>
			tmpDigit[3] = 0x40;
     99c:	e0 ec       	ldi	r30, 0xC0	; 192
     99e:	f1 e0       	ldi	r31, 0x01	; 1
     9a0:	80 e4       	ldi	r24, 0x40	; 64
     9a2:	83 83       	std	Z+3, r24	; 0x03
			tmpDigit[2] = fndTableNum[9];
     9a4:	87 e6       	ldi	r24, 0x67	; 103
     9a6:	82 83       	std	Z+2, r24	; 0x02
			tmpDigit[1] = fndTableNum[9];
     9a8:	81 83       	std	Z+1, r24	; 0x01
			tmpDigit[0] = fndTableNum[9];
     9aa:	80 83       	st	Z, r24
     9ac:	2c c0       	rjmp	.+88     	; 0xa06 <displayNumber1+0x8c>
			
			} else {
			tmpDigit[3] = 0x40;
     9ae:	e0 ec       	ldi	r30, 0xC0	; 192
     9b0:	f1 e0       	ldi	r31, 0x01	; 1
     9b2:	80 e4       	ldi	r24, 0x40	; 64
     9b4:	83 83       	std	Z+3, r24	; 0x03
			tmpDigit[2] = tmpWeight/100;
     9b6:	c9 01       	movw	r24, r18
     9b8:	64 e6       	ldi	r22, 0x64	; 100
     9ba:	70 e0       	ldi	r23, 0x00	; 0
     9bc:	0e 94 b2 0d 	call	0x1b64	; 0x1b64 <__divmodhi4>
     9c0:	7b 01       	movw	r14, r22
     9c2:	62 83       	std	Z+2, r22	; 0x02
			tmpDigit[1] = (tmpWeight%100)/10;
     9c4:	0a e0       	ldi	r16, 0x0A	; 10
     9c6:	10 e0       	ldi	r17, 0x00	; 0
     9c8:	b8 01       	movw	r22, r16
     9ca:	0e 94 b2 0d 	call	0x1b64	; 0x1b64 <__divmodhi4>
     9ce:	eb 01       	movw	r28, r22
     9d0:	61 83       	std	Z+1, r22	; 0x01
			tmpDigit[0] = tmpWeight%10;
     9d2:	c9 01       	movw	r24, r18
     9d4:	b8 01       	movw	r22, r16
     9d6:	0e 94 b2 0d 	call	0x1b64	; 0x1b64 <__divmodhi4>
     9da:	80 83       	st	Z, r24
			for(i = 0 ; i < 3 ; i++ ) fndData[i] = fndTableNum[tmpDigit[i]];
     9dc:	29 ea       	ldi	r18, 0xA9	; 169
     9de:	31 e0       	ldi	r19, 0x01	; 1
     9e0:	99 27       	eor	r25, r25
     9e2:	dc 01       	movw	r26, r24
     9e4:	ac 5f       	subi	r26, 0xFC	; 252
     9e6:	be 4f       	sbci	r27, 0xFE	; 254
     9e8:	8c 91       	ld	r24, X
     9ea:	f9 01       	movw	r30, r18
     9ec:	80 83       	st	Z, r24
     9ee:	dd 27       	eor	r29, r29
     9f0:	cc 5f       	subi	r28, 0xFC	; 252
     9f2:	de 4f       	sbci	r29, 0xFE	; 254
     9f4:	88 81       	ld	r24, Y
     9f6:	81 83       	std	Z+1, r24	; 0x01
     9f8:	f7 01       	movw	r30, r14
     9fa:	ff 27       	eor	r31, r31
     9fc:	ec 5f       	subi	r30, 0xFC	; 252
     9fe:	fe 4f       	sbci	r31, 0xFE	; 254
     a00:	80 81       	ld	r24, Z
     a02:	f9 01       	movw	r30, r18
     a04:	82 83       	std	Z+2, r24	; 0x02
		}
		if( codePoint != 0 ) fndData[codePoint] |= 0x80;
     a06:	80 91 92 01 	lds	r24, 0x0192	; 0x800192 <codePoint>
     a0a:	90 91 93 01 	lds	r25, 0x0193	; 0x800193 <codePoint+0x1>
     a0e:	00 97       	sbiw	r24, 0x00	; 0
     a10:	09 f4       	brne	.+2      	; 0xa14 <displayNumber1+0x9a>
     a12:	60 c0       	rjmp	.+192    	; 0xad4 <displayNumber1+0x15a>
     a14:	fc 01       	movw	r30, r24
     a16:	e7 55       	subi	r30, 0x57	; 87
     a18:	fe 4f       	sbci	r31, 0xFE	; 254
     a1a:	80 81       	ld	r24, Z
     a1c:	80 68       	ori	r24, 0x80	; 128
     a1e:	80 83       	st	Z, r24
     a20:	59 c0       	rjmp	.+178    	; 0xad4 <displayNumber1+0x15a>
		return;
	}

	if(weightIn > 9999 ){
     a22:	80 31       	cpi	r24, 0x10	; 16
     a24:	f7 e2       	ldi	r31, 0x27	; 39
     a26:	9f 07       	cpc	r25, r31
     a28:	44 f0       	brlt	.+16     	; 0xa3a <displayNumber1+0xc0>
		tmpDigit[3] = 9;
     a2a:	e0 ec       	ldi	r30, 0xC0	; 192
     a2c:	f1 e0       	ldi	r31, 0x01	; 1
     a2e:	89 e0       	ldi	r24, 0x09	; 9
     a30:	83 83       	std	Z+3, r24	; 0x03
		tmpDigit[2] = 9;
     a32:	82 83       	std	Z+2, r24	; 0x02
		tmpDigit[1] = 9;
     a34:	81 83       	std	Z+1, r24	; 0x01
		tmpDigit[0] = 9;
     a36:	80 83       	st	Z, r24
     a38:	37 c0       	rjmp	.+110    	; 0xaa8 <displayNumber1+0x12e>
		} else {
		tmpDigit[3] = weightIn/ 1000;
     a3a:	e0 ec       	ldi	r30, 0xC0	; 192
     a3c:	f1 e0       	ldi	r31, 0x01	; 1
     a3e:	68 ee       	ldi	r22, 0xE8	; 232
     a40:	73 e0       	ldi	r23, 0x03	; 3
     a42:	0e 94 b2 0d 	call	0x1b64	; 0x1b64 <__divmodhi4>
     a46:	63 83       	std	Z+3, r22	; 0x03
		tmpDigit[2] = (weightIn%1000)/100;
     a48:	c4 e6       	ldi	r28, 0x64	; 100
     a4a:	d0 e0       	ldi	r29, 0x00	; 0
     a4c:	be 01       	movw	r22, r28
     a4e:	0e 94 b2 0d 	call	0x1b64	; 0x1b64 <__divmodhi4>
     a52:	62 83       	std	Z+2, r22	; 0x02
		tmpDigit[1] = (weightIn%100)/10;
     a54:	c9 01       	movw	r24, r18
     a56:	be 01       	movw	r22, r28
     a58:	0e 94 b2 0d 	call	0x1b64	; 0x1b64 <__divmodhi4>
     a5c:	ca e0       	ldi	r28, 0x0A	; 10
     a5e:	d0 e0       	ldi	r29, 0x00	; 0
     a60:	be 01       	movw	r22, r28
     a62:	0e 94 b2 0d 	call	0x1b64	; 0x1b64 <__divmodhi4>
     a66:	61 83       	std	Z+1, r22	; 0x01
		tmpDigit[0] = weightIn%10;
     a68:	c9 01       	movw	r24, r18
     a6a:	be 01       	movw	r22, r28
     a6c:	0e 94 b2 0d 	call	0x1b64	; 0x1b64 <__divmodhi4>
     a70:	80 83       	st	Z, r24
     a72:	1a c0       	rjmp	.+52     	; 0xaa8 <displayNumber1+0x12e>
	}
	
	for(i = 0 ; i < 4 ; i++ ) tmpDigit[i] = fndTableNum[tmpDigit[i]];
     a74:	ec 91       	ld	r30, X
     a76:	f0 e0       	ldi	r31, 0x00	; 0
     a78:	ec 5f       	subi	r30, 0xFC	; 252
     a7a:	fe 4f       	sbci	r31, 0xFE	; 254
     a7c:	80 81       	ld	r24, Z
     a7e:	8d 93       	st	X+, r24
     a80:	a2 17       	cp	r26, r18
     a82:	b3 07       	cpc	r27, r19
     a84:	b9 f7       	brne	.-18     	; 0xa74 <displayNumber1+0xfa>
	
	if(tmpDigit[3] == fndTableNum[0] ) {
     a86:	80 91 c3 01 	lds	r24, 0x01C3	; 0x8001c3 <tmpDigit+0x3>
     a8a:	8f 33       	cpi	r24, 0x3F	; 63
     a8c:	91 f4       	brne	.+36     	; 0xab2 <displayNumber1+0x138>
		tmpDigit[3] = 0x00;
     a8e:	e0 ec       	ldi	r30, 0xC0	; 192
     a90:	f1 e0       	ldi	r31, 0x01	; 1
     a92:	13 82       	std	Z+3, r1	; 0x03
		if(tmpDigit[2] == fndTableNum[0] ) {
     a94:	82 81       	ldd	r24, Z+2	; 0x02
     a96:	8f 33       	cpi	r24, 0x3F	; 63
     a98:	61 f4       	brne	.+24     	; 0xab2 <displayNumber1+0x138>
			tmpDigit[2] = 0x00;
     a9a:	12 82       	std	Z+2, r1	; 0x02
			if(tmpDigit[1] == fndTableNum[0] ) {
     a9c:	81 81       	ldd	r24, Z+1	; 0x01
     a9e:	8f 33       	cpi	r24, 0x3F	; 63
     aa0:	41 f4       	brne	.+16     	; 0xab2 <displayNumber1+0x138>
				tmpDigit[1] = 0x00;
     aa2:	10 92 c1 01 	sts	0x01C1, r1	; 0x8001c1 <tmpDigit+0x1>
     aa6:	05 c0       	rjmp	.+10     	; 0xab2 <displayNumber1+0x138>
     aa8:	a0 ec       	ldi	r26, 0xC0	; 192
     aaa:	b1 e0       	ldi	r27, 0x01	; 1
     aac:	24 ec       	ldi	r18, 0xC4	; 196
     aae:	31 e0       	ldi	r19, 0x01	; 1
     ab0:	e1 cf       	rjmp	.-62     	; 0xa74 <displayNumber1+0xfa>
			}
		}
	}

	for(i = 0 ; i < 4 ; i++ ) fndData[i] = tmpDigit[i];
     ab2:	e9 ea       	ldi	r30, 0xA9	; 169
     ab4:	f1 e0       	ldi	r31, 0x01	; 1
     ab6:	a0 ec       	ldi	r26, 0xC0	; 192
     ab8:	b1 e0       	ldi	r27, 0x01	; 1
     aba:	8c 91       	ld	r24, X
     abc:	80 83       	st	Z, r24
     abe:	11 96       	adiw	r26, 0x01	; 1
     ac0:	8c 91       	ld	r24, X
     ac2:	11 97       	sbiw	r26, 0x01	; 1
     ac4:	81 83       	std	Z+1, r24	; 0x01
     ac6:	12 96       	adiw	r26, 0x02	; 2
     ac8:	8c 91       	ld	r24, X
     aca:	12 97       	sbiw	r26, 0x02	; 2
     acc:	82 83       	std	Z+2, r24	; 0x02
     ace:	13 96       	adiw	r26, 0x03	; 3
     ad0:	8c 91       	ld	r24, X
     ad2:	83 83       	std	Z+3, r24	; 0x03
}
     ad4:	df 91       	pop	r29
     ad6:	cf 91       	pop	r28
     ad8:	1f 91       	pop	r17
     ada:	0f 91       	pop	r16
     adc:	ff 90       	pop	r15
     ade:	ef 90       	pop	r14
     ae0:	08 95       	ret

00000ae2 <displayNumber>:

void displayNumber(int16_t weightIn)
{
     ae2:	ef 92       	push	r14
     ae4:	ff 92       	push	r15
     ae6:	0f 93       	push	r16
     ae8:	1f 93       	push	r17
     aea:	cf 93       	push	r28
     aec:	df 93       	push	r29
     aee:	ec 01       	movw	r28, r24
	int i;
	int16_t	tmpWeight;
	static uint32_t startmsecCount;
	if( elaspMsecTime(startmsecCount) < 300 ) return;
     af0:	60 91 42 01 	lds	r22, 0x0142	; 0x800142 <startmsecCount.1968>
     af4:	70 91 43 01 	lds	r23, 0x0143	; 0x800143 <startmsecCount.1968+0x1>
     af8:	80 91 44 01 	lds	r24, 0x0144	; 0x800144 <startmsecCount.1968+0x2>
     afc:	90 91 45 01 	lds	r25, 0x0145	; 0x800145 <startmsecCount.1968+0x3>
     b00:	58 dc       	rcall	.-1872   	; 0x3b2 <elaspMsecTime>
     b02:	6c 32       	cpi	r22, 0x2C	; 44
     b04:	71 40       	sbci	r23, 0x01	; 1
     b06:	81 05       	cpc	r24, r1
     b08:	91 05       	cpc	r25, r1
     b0a:	08 f4       	brcc	.+2      	; 0xb0e <displayNumber+0x2c>
     b0c:	72 c0       	rjmp	.+228    	; 0xbf2 <displayNumber+0x110>

	startmsecCount = timerCounter2;
     b0e:	80 91 84 01 	lds	r24, 0x0184	; 0x800184 <timerCounter2>
     b12:	90 91 85 01 	lds	r25, 0x0185	; 0x800185 <timerCounter2+0x1>
     b16:	a0 91 86 01 	lds	r26, 0x0186	; 0x800186 <timerCounter2+0x2>
     b1a:	b0 91 87 01 	lds	r27, 0x0187	; 0x800187 <timerCounter2+0x3>
     b1e:	80 93 42 01 	sts	0x0142, r24	; 0x800142 <startmsecCount.1968>
     b22:	90 93 43 01 	sts	0x0143, r25	; 0x800143 <startmsecCount.1968+0x1>
     b26:	a0 93 44 01 	sts	0x0144, r26	; 0x800144 <startmsecCount.1968+0x2>
     b2a:	b0 93 45 01 	sts	0x0145, r27	; 0x800145 <startmsecCount.1968+0x3>

	if(weightIn < 0 ){
     b2e:	dd 23       	and	r29, r29
     b30:	d4 f5       	brge	.+116    	; 0xba6 <displayNumber+0xc4>
		tmpWeight = -weightIn;
     b32:	d1 95       	neg	r29
     b34:	c1 95       	neg	r28
     b36:	d1 09       	sbc	r29, r1
		if(tmpWeight > 998 ){
     b38:	c7 3e       	cpi	r28, 0xE7	; 231
     b3a:	83 e0       	ldi	r24, 0x03	; 3
     b3c:	d8 07       	cpc	r29, r24
     b3e:	4c f0       	brlt	.+18     	; 0xb52 <displayNumber+0x70>
			tmpDigit[3] = 0x40;
     b40:	e0 ec       	ldi	r30, 0xC0	; 192
     b42:	f1 e0       	ldi	r31, 0x01	; 1
     b44:	80 e4       	ldi	r24, 0x40	; 64
     b46:	83 83       	std	Z+3, r24	; 0x03
			tmpDigit[2] = fndTableNum[9];
     b48:	87 e6       	ldi	r24, 0x67	; 103
     b4a:	82 83       	std	Z+2, r24	; 0x02
			tmpDigit[1] = fndTableNum[9];
     b4c:	81 83       	std	Z+1, r24	; 0x01
			tmpDigit[0] = fndTableNum[9];
     b4e:	80 83       	st	Z, r24
     b50:	50 c0       	rjmp	.+160    	; 0xbf2 <displayNumber+0x110>
			
			} else {
			tmpDigit[3] = 0x40;
     b52:	e0 ec       	ldi	r30, 0xC0	; 192
     b54:	f1 e0       	ldi	r31, 0x01	; 1
     b56:	80 e4       	ldi	r24, 0x40	; 64
     b58:	83 83       	std	Z+3, r24	; 0x03
			tmpDigit[2] = tmpWeight/100;
     b5a:	ce 01       	movw	r24, r28
     b5c:	64 e6       	ldi	r22, 0x64	; 100
     b5e:	70 e0       	ldi	r23, 0x00	; 0
     b60:	0e 94 b2 0d 	call	0x1b64	; 0x1b64 <__divmodhi4>
     b64:	9b 01       	movw	r18, r22
     b66:	62 83       	std	Z+2, r22	; 0x02
			tmpDigit[1] = (tmpWeight%100)/10;
     b68:	0a e0       	ldi	r16, 0x0A	; 10
     b6a:	10 e0       	ldi	r17, 0x00	; 0
     b6c:	b8 01       	movw	r22, r16
     b6e:	fa d7       	rcall	.+4084   	; 0x1b64 <__divmodhi4>
     b70:	7b 01       	movw	r14, r22
     b72:	61 83       	std	Z+1, r22	; 0x01
			tmpDigit[0] = tmpWeight%10;
     b74:	ce 01       	movw	r24, r28
     b76:	b8 01       	movw	r22, r16
     b78:	f5 d7       	rcall	.+4074   	; 0x1b64 <__divmodhi4>
     b7a:	80 83       	st	Z, r24
			for(i = 0 ; i < 3 ; i++ ) fndData[i] = fndTableNum[tmpDigit[i]];
     b7c:	c9 ea       	ldi	r28, 0xA9	; 169
     b7e:	d1 e0       	ldi	r29, 0x01	; 1
     b80:	99 27       	eor	r25, r25
     b82:	dc 01       	movw	r26, r24
     b84:	ac 5f       	subi	r26, 0xFC	; 252
     b86:	be 4f       	sbci	r27, 0xFE	; 254
     b88:	8c 91       	ld	r24, X
     b8a:	88 83       	st	Y, r24
     b8c:	f7 01       	movw	r30, r14
     b8e:	ff 27       	eor	r31, r31
     b90:	ec 5f       	subi	r30, 0xFC	; 252
     b92:	fe 4f       	sbci	r31, 0xFE	; 254
     b94:	80 81       	ld	r24, Z
     b96:	89 83       	std	Y+1, r24	; 0x01
     b98:	33 27       	eor	r19, r19
     b9a:	f9 01       	movw	r30, r18
     b9c:	ec 5f       	subi	r30, 0xFC	; 252
     b9e:	fe 4f       	sbci	r31, 0xFE	; 254
     ba0:	80 81       	ld	r24, Z
     ba2:	8a 83       	std	Y+2, r24	; 0x02
     ba4:	26 c0       	rjmp	.+76     	; 0xbf2 <displayNumber+0x110>
		}
		return;
	}

	tmpDigit[3] = weightIn/1000;
     ba6:	e0 ec       	ldi	r30, 0xC0	; 192
     ba8:	f1 e0       	ldi	r31, 0x01	; 1
     baa:	ce 01       	movw	r24, r28
     bac:	68 ee       	ldi	r22, 0xE8	; 232
     bae:	73 e0       	ldi	r23, 0x03	; 3
     bb0:	d9 d7       	rcall	.+4018   	; 0x1b64 <__divmodhi4>
     bb2:	63 83       	std	Z+3, r22	; 0x03
	tmpDigit[2] = (weightIn%1000)/100;
     bb4:	24 e6       	ldi	r18, 0x64	; 100
     bb6:	30 e0       	ldi	r19, 0x00	; 0
     bb8:	b9 01       	movw	r22, r18
     bba:	d4 d7       	rcall	.+4008   	; 0x1b64 <__divmodhi4>
	tmpDigit[1] = (weightIn%100)/10;
     bbc:	62 83       	std	Z+2, r22	; 0x02
     bbe:	ce 01       	movw	r24, r28
     bc0:	b9 01       	movw	r22, r18
     bc2:	d0 d7       	rcall	.+4000   	; 0x1b64 <__divmodhi4>
     bc4:	2a e0       	ldi	r18, 0x0A	; 10
     bc6:	30 e0       	ldi	r19, 0x00	; 0
     bc8:	b9 01       	movw	r22, r18
     bca:	cc d7       	rcall	.+3992   	; 0x1b64 <__divmodhi4>
	tmpDigit[0] = weightIn%10;	
     bcc:	61 83       	std	Z+1, r22	; 0x01
     bce:	ce 01       	movw	r24, r28
     bd0:	b9 01       	movw	r22, r18
     bd2:	c8 d7       	rcall	.+3984   	; 0x1b64 <__divmodhi4>
     bd4:	80 83       	st	Z, r24
     bd6:	df 01       	movw	r26, r30
     bd8:	c9 ea       	ldi	r28, 0xA9	; 169
     bda:	d1 e0       	ldi	r29, 0x01	; 1
     bdc:	24 ec       	ldi	r18, 0xC4	; 196
     bde:	31 e0       	ldi	r19, 0x01	; 1
	for(i=0;i < 4 ; i++ ) fndData[i] = fndTableNum[tmpDigit[i]];
     be0:	ed 91       	ld	r30, X+
     be2:	f0 e0       	ldi	r31, 0x00	; 0
     be4:	ec 5f       	subi	r30, 0xFC	; 252
     be6:	fe 4f       	sbci	r31, 0xFE	; 254
     be8:	80 81       	ld	r24, Z
     bea:	89 93       	st	Y+, r24
     bec:	a2 17       	cp	r26, r18
     bee:	b3 07       	cpc	r27, r19
     bf0:	b9 f7       	brne	.-18     	; 0xbe0 <displayNumber+0xfe>
}
     bf2:	df 91       	pop	r29
     bf4:	cf 91       	pop	r28
     bf6:	1f 91       	pop	r17
     bf8:	0f 91       	pop	r16
     bfa:	ff 90       	pop	r15
     bfc:	ef 90       	pop	r14
     bfe:	08 95       	ret

00000c00 <initGpio>:

void initGpio()
{
	DDRA		= 0x0f;   // FND Control Port
     c00:	8f e0       	ldi	r24, 0x0F	; 15
     c02:	8a bb       	out	0x1a, r24	; 26
	DDRB		= 0x07;   // SSI and Button
     c04:	87 e0       	ldi	r24, 0x07	; 7
     c06:	87 bb       	out	0x17, r24	; 23
	DDRC		= 0xff;   // FND Data Port
     c08:	8f ef       	ldi	r24, 0xFF	; 255
     c0a:	84 bb       	out	0x14, r24	; 20
	DDRD		= 0x08;   // UART and reserved
     c0c:	88 e0       	ldi	r24, 0x08	; 8
     c0e:	81 bb       	out	0x11, r24	; 17
	DDRE = 0xfe;
     c10:	8e ef       	ldi	r24, 0xFE	; 254
     c12:	82 b9       	out	0x02, r24	; 2
	PORTE = 0x7e;
     c14:	8e e7       	ldi	r24, 0x7E	; 126
     c16:	83 b9       	out	0x03, r24	; 3

	TIMSK =  0x40;
     c18:	80 e4       	ldi	r24, 0x40	; 64
     c1a:	87 bf       	out	0x37, r24	; 55
	TCNT2 = 0x00;
     c1c:	14 bc       	out	0x24, r1	; 36
	TCCR2 =  0x03;
     c1e:	83 e0       	ldi	r24, 0x03	; 3
     c20:	85 bd       	out	0x25, r24	; 37

	sbi(PORTB,CS);
     c22:	c0 9a       	sbi	0x18, 0	; 24
	SPCR = 0x5D;
     c24:	8d e5       	ldi	r24, 0x5D	; 93
     c26:	8d b9       	out	0x0d, r24	; 13
	SPSR= 0x00;
     c28:	1e b8       	out	0x0e, r1	; 14
	
	sbi(PORTE,LED_ALARM);
     c2a:	1e 9a       	sbi	0x03, 6	; 3
	sbi(PORTE,LED_OVER);
     c2c:	1f 9a       	sbi	0x03, 7	; 3
     c2e:	08 95       	ret

00000c30 <calcWeightCoeff>:
	
//	SFIOR = 0xff;
}

void calcWeightCoeff()
{
     c30:	cf 93       	push	r28
     c32:	df 93       	push	r29
	int32_t tmp;
	tmp = (int32_t)( codeAdcSpan - codeAdcZero);
     c34:	c0 91 96 01 	lds	r28, 0x0196	; 0x800196 <codeAdcZero>
     c38:	d0 91 97 01 	lds	r29, 0x0197	; 0x800197 <codeAdcZero+0x1>

	calcFactor = (int32_t ) codeWeight * 1024 ;
	calcFactor = calcFactor / tmp;
     c3c:	60 91 c7 01 	lds	r22, 0x01C7	; 0x8001c7 <codeWeight>
     c40:	70 91 c8 01 	lds	r23, 0x01C8	; 0x8001c8 <codeWeight+0x1>
     c44:	cb 01       	movw	r24, r22
     c46:	77 0f       	add	r23, r23
     c48:	aa 0b       	sbc	r26, r26
     c4a:	bb 0b       	sbc	r27, r27
     c4c:	bc 01       	movw	r22, r24
     c4e:	cd 01       	movw	r24, r26
     c50:	05 2e       	mov	r0, r21
     c52:	5a e0       	ldi	r21, 0x0A	; 10
     c54:	66 0f       	add	r22, r22
     c56:	77 1f       	adc	r23, r23
     c58:	88 1f       	adc	r24, r24
     c5a:	99 1f       	adc	r25, r25
     c5c:	5a 95       	dec	r21
     c5e:	d1 f7       	brne	.-12     	; 0xc54 <calcWeightCoeff+0x24>
     c60:	50 2d       	mov	r21, r0
     c62:	20 91 be 01 	lds	r18, 0x01BE	; 0x8001be <codeAdcSpan>
     c66:	30 91 bf 01 	lds	r19, 0x01BF	; 0x8001bf <codeAdcSpan+0x1>
     c6a:	2c 1b       	sub	r18, r28
     c6c:	3d 0b       	sbc	r19, r29
     c6e:	03 2e       	mov	r0, r19
     c70:	00 0c       	add	r0, r0
     c72:	44 0b       	sbc	r20, r20
     c74:	55 0b       	sbc	r21, r21
     c76:	89 d7       	rcall	.+3858   	; 0x1b8a <__divmodsi4>
     c78:	20 93 a3 01 	sts	0x01A3, r18	; 0x8001a3 <calcFactor>
     c7c:	30 93 a4 01 	sts	0x01A4, r19	; 0x8001a4 <calcFactor+0x1>
     c80:	40 93 a5 01 	sts	0x01A5, r20	; 0x8001a5 <calcFactor+0x2>
     c84:	50 93 a6 01 	sts	0x01A6, r21	; 0x8001a6 <calcFactor+0x3>

	calcOffset = (int32_t ) codeWeight * 1024;
	calcOffset = calcOffset / tmp;
	calcOffset = - calcOffset * codeAdcZero;
     c88:	50 95       	com	r21
     c8a:	40 95       	com	r20
     c8c:	30 95       	com	r19
     c8e:	21 95       	neg	r18
     c90:	3f 4f       	sbci	r19, 0xFF	; 255
     c92:	4f 4f       	sbci	r20, 0xFF	; 255
     c94:	5f 4f       	sbci	r21, 0xFF	; 255
     c96:	de 01       	movw	r26, r28
     c98:	9d d7       	rcall	.+3898   	; 0x1bd4 <__mulshisi3>
     c9a:	60 93 ca 01 	sts	0x01CA, r22	; 0x8001ca <calcOffset>
     c9e:	70 93 cb 01 	sts	0x01CB, r23	; 0x8001cb <calcOffset+0x1>
     ca2:	80 93 cc 01 	sts	0x01CC, r24	; 0x8001cc <calcOffset+0x2>
     ca6:	90 93 cd 01 	sts	0x01CD, r25	; 0x8001cd <calcOffset+0x3>
}
     caa:	df 91       	pop	r29
     cac:	cf 91       	pop	r28
     cae:	08 95       	ret

00000cb0 <calcWeightOffset>:

void calcWeightOffset()
{
     cb0:	cf 93       	push	r28
     cb2:	df 93       	push	r29
	// calcFactor = (int32_t ) codeWeight * 1024 ;
	// calcFactor = calcFactor / ( codeAdcSpan - codeAdcZero );
	int32_t tmp;
	
	tmp = (int32_t)( codeAdcSpan - codeAdcZero);
     cb4:	c0 91 96 01 	lds	r28, 0x0196	; 0x800196 <codeAdcZero>
     cb8:	d0 91 97 01 	lds	r29, 0x0197	; 0x800197 <codeAdcZero+0x1>
	
	calcOffset = (int32_t ) codeWeight * 1024;
	calcOffset = calcOffset / tmp;
	calcOffset = - calcOffset * codeAdcZero;
     cbc:	60 91 c7 01 	lds	r22, 0x01C7	; 0x8001c7 <codeWeight>
     cc0:	70 91 c8 01 	lds	r23, 0x01C8	; 0x8001c8 <codeWeight+0x1>
     cc4:	cb 01       	movw	r24, r22
     cc6:	77 0f       	add	r23, r23
     cc8:	aa 0b       	sbc	r26, r26
     cca:	bb 0b       	sbc	r27, r27
     ccc:	bc 01       	movw	r22, r24
     cce:	cd 01       	movw	r24, r26
     cd0:	05 2e       	mov	r0, r21
     cd2:	5a e0       	ldi	r21, 0x0A	; 10
     cd4:	66 0f       	add	r22, r22
     cd6:	77 1f       	adc	r23, r23
     cd8:	88 1f       	adc	r24, r24
     cda:	99 1f       	adc	r25, r25
     cdc:	5a 95       	dec	r21
     cde:	d1 f7       	brne	.-12     	; 0xcd4 <calcWeightOffset+0x24>
     ce0:	50 2d       	mov	r21, r0
     ce2:	20 91 be 01 	lds	r18, 0x01BE	; 0x8001be <codeAdcSpan>
     ce6:	30 91 bf 01 	lds	r19, 0x01BF	; 0x8001bf <codeAdcSpan+0x1>
     cea:	2c 1b       	sub	r18, r28
     cec:	3d 0b       	sbc	r19, r29
     cee:	03 2e       	mov	r0, r19
     cf0:	00 0c       	add	r0, r0
     cf2:	44 0b       	sbc	r20, r20
     cf4:	55 0b       	sbc	r21, r21
     cf6:	49 d7       	rcall	.+3730   	; 0x1b8a <__divmodsi4>
     cf8:	50 95       	com	r21
     cfa:	40 95       	com	r20
     cfc:	30 95       	com	r19
     cfe:	21 95       	neg	r18
     d00:	3f 4f       	sbci	r19, 0xFF	; 255
     d02:	4f 4f       	sbci	r20, 0xFF	; 255
     d04:	5f 4f       	sbci	r21, 0xFF	; 255
     d06:	de 01       	movw	r26, r28
     d08:	65 d7       	rcall	.+3786   	; 0x1bd4 <__mulshisi3>
     d0a:	60 93 ca 01 	sts	0x01CA, r22	; 0x8001ca <calcOffset>
     d0e:	70 93 cb 01 	sts	0x01CB, r23	; 0x8001cb <calcOffset+0x1>
     d12:	80 93 cc 01 	sts	0x01CC, r24	; 0x8001cc <calcOffset+0x2>
     d16:	90 93 cd 01 	sts	0x01CD, r25	; 0x8001cd <calcOffset+0x3>
}
     d1a:	df 91       	pop	r29
     d1c:	cf 91       	pop	r28
     d1e:	08 95       	ret

00000d20 <initCodeData>:

void initCodeData(){

	calcWeightCoeff();
     d20:	87 df       	rcall	.-242    	; 0xc30 <calcWeightCoeff>
	alarmOn = 0;
     d22:	10 92 b3 01 	sts	0x01B3, r1	; 0x8001b3 <alarmOn+0x1>
     d26:	10 92 b2 01 	sts	0x01B2, r1	; 0x8001b2 <alarmOn>
	overOn	= 0;
     d2a:	10 92 d2 01 	sts	0x01D2, r1	; 0x8001d2 <overOn+0x1>
     d2e:	10 92 d1 01 	sts	0x01D1, r1	; 0x8001d1 <overOn>
	gflagConnect = 0;
     d32:	10 92 b9 01 	sts	0x01B9, r1	; 0x8001b9 <gflagConnect+0x1>
     d36:	10 92 b8 01 	sts	0x01B8, r1	; 0x8001b8 <gflagConnect>
	tripNumber = 0;
     d3a:	10 92 a8 01 	sts	0x01A8, r1	; 0x8001a8 <tripNumber+0x1>
     d3e:	10 92 a7 01 	sts	0x01A7, r1	; 0x8001a7 <tripNumber>
	codeNumber = 0;
     d42:	10 92 99 01 	sts	0x0199, r1	; 0x800199 <codeNumber+0x1>
     d46:	10 92 98 01 	sts	0x0198, r1	; 0x800198 <codeNumber>
	blinkCmdFlag = 0x00;
     d4a:	10 92 c9 01 	sts	0x01C9, r1	; 0x8001c9 <blinkCmdFlag>
     d4e:	08 95       	ret

00000d50 <procRelayOut>:
}


void procRelayOut(void)
{
	if( machineState != MODE_RUN )
     d50:	80 91 d0 01 	lds	r24, 0x01D0	; 0x8001d0 <machineState>
     d54:	88 23       	and	r24, r24
     d56:	29 f0       	breq	.+10     	; 0xd62 <procRelayOut+0x12>
	{
		cbi(PORTA,RELAY_ALARM);
     d58:	de 98       	cbi	0x1b, 6	; 27
		sbi(PORTE,LED_ALARM);
     d5a:	1e 9a       	sbi	0x03, 6	; 3

		cbi(PORTA,RELAY_OVER);
     d5c:	dd 98       	cbi	0x1b, 5	; 27
		sbi(PORTE,LED_OVER);
     d5e:	1f 9a       	sbi	0x03, 7	; 3
	
		 return;
     d60:	08 95       	ret
	}
	
	overOn  = ( loadWeight > codeOver  ) ? 1 : 0;
     d62:	80 91 ce 01 	lds	r24, 0x01CE	; 0x8001ce <loadWeight>
     d66:	90 91 cf 01 	lds	r25, 0x01CF	; 0x8001cf <loadWeight+0x1>
     d6a:	21 e0       	ldi	r18, 0x01	; 1
     d6c:	30 e0       	ldi	r19, 0x00	; 0
     d6e:	40 91 d3 01 	lds	r20, 0x01D3	; 0x8001d3 <codeOver>
     d72:	50 91 d4 01 	lds	r21, 0x01D4	; 0x8001d4 <codeOver+0x1>
     d76:	48 17       	cp	r20, r24
     d78:	59 07       	cpc	r21, r25
     d7a:	14 f0       	brlt	.+4      	; 0xd80 <procRelayOut+0x30>
     d7c:	20 e0       	ldi	r18, 0x00	; 0
     d7e:	30 e0       	ldi	r19, 0x00	; 0
     d80:	30 93 d2 01 	sts	0x01D2, r19	; 0x8001d2 <overOn+0x1>
     d84:	20 93 d1 01 	sts	0x01D1, r18	; 0x8001d1 <overOn>
	alarmOn = ( loadWeight > codeAlarm ) ? 1 : 0;
     d88:	20 91 b6 01 	lds	r18, 0x01B6	; 0x8001b6 <codeAlarm>
     d8c:	30 91 b7 01 	lds	r19, 0x01B7	; 0x8001b7 <codeAlarm+0x1>
     d90:	41 e0       	ldi	r20, 0x01	; 1
     d92:	50 e0       	ldi	r21, 0x00	; 0
     d94:	28 17       	cp	r18, r24
     d96:	39 07       	cpc	r19, r25
     d98:	14 f0       	brlt	.+4      	; 0xd9e <procRelayOut+0x4e>
     d9a:	40 e0       	ldi	r20, 0x00	; 0
     d9c:	50 e0       	ldi	r21, 0x00	; 0
     d9e:	50 93 b3 01 	sts	0x01B3, r21	; 0x8001b3 <alarmOn+0x1>
     da2:	40 93 b2 01 	sts	0x01B2, r20	; 0x8001b2 <alarmOn>
	
//--- alarm 
	if( alarmOn){
     da6:	28 17       	cp	r18, r24
     da8:	39 07       	cpc	r19, r25
     daa:	1c f4       	brge	.+6      	; 0xdb2 <procRelayOut+0x62>
		sbi(PORTA,RELAY_ALARM);
     dac:	de 9a       	sbi	0x1b, 6	; 27
		cbi(PORTE,LED_ALARM); 
     dae:	1e 98       	cbi	0x03, 6	; 3
     db0:	02 c0       	rjmp	.+4      	; 0xdb6 <procRelayOut+0x66>
	} else {
		cbi(PORTA,RELAY_ALARM);
     db2:	de 98       	cbi	0x1b, 6	; 27
		sbi(PORTE,LED_ALARM);
     db4:	1e 9a       	sbi	0x03, 6	; 3
	}
	
//--- over relay led	
	if( overOn){
     db6:	80 91 d1 01 	lds	r24, 0x01D1	; 0x8001d1 <overOn>
     dba:	90 91 d2 01 	lds	r25, 0x01D2	; 0x8001d2 <overOn+0x1>
     dbe:	89 2b       	or	r24, r25
     dc0:	19 f0       	breq	.+6      	; 0xdc8 <procRelayOut+0x78>
		sbi(PORTA,RELAY_OVER);
     dc2:	dd 9a       	sbi	0x1b, 5	; 27
		cbi(PORTE,LED_OVER);
     dc4:	1f 98       	cbi	0x03, 7	; 3
     dc6:	02 c0       	rjmp	.+4      	; 0xdcc <procRelayOut+0x7c>
	} else {
		cbi(PORTA,RELAY_OVER);
     dc8:	dd 98       	cbi	0x1b, 5	; 27
		sbi(PORTE,LED_OVER);
     dca:	1f 9a       	sbi	0x03, 7	; 3
	}

// test button 
	if( (PIND & 0x01) == 0){
     dcc:	80 99       	sbic	0x10, 0	; 16
     dce:	04 c0       	rjmp	.+8      	; 0xdd8 <procRelayOut+0x88>
		// displayWeight(codeOver);
		sbi(PORTA,RELAY_ALARM);
     dd0:	de 9a       	sbi	0x1b, 6	; 27
		cbi(PORTE,LED_ALARM);
     dd2:	1e 98       	cbi	0x03, 6	; 3

		sbi(PORTA,RELAY_OVER);
     dd4:	dd 9a       	sbi	0x1b, 5	; 27
		cbi(PORTE,LED_OVER);
     dd6:	1f 98       	cbi	0x03, 7	; 3
     dd8:	08 95       	ret

00000dda <systemErrProc>:
	}
}

void systemErrProc( uint8_t err_no)
{
     dda:	08 95       	ret

00000ddc <readLoad>:
	
}

int16_t readLoad(void)
{
     ddc:	cf 92       	push	r12
     dde:	df 92       	push	r13
     de0:	ef 92       	push	r14
     de2:	ff 92       	push	r15
     de4:	0f 93       	push	r16
     de6:	1f 93       	push	r17
	static int ringCountFilt = 0;
	int16_t weight1;
	int32_t weightSum;
	static uint32_t startmsecCount=0;
	
	if( elaspMsecTime(startmsecCount) < 100 ) return loadWeight ;
     de8:	60 91 3e 01 	lds	r22, 0x013E	; 0x80013e <startmsecCount.2016>
     dec:	70 91 3f 01 	lds	r23, 0x013F	; 0x80013f <startmsecCount.2016+0x1>
     df0:	80 91 40 01 	lds	r24, 0x0140	; 0x800140 <startmsecCount.2016+0x2>
     df4:	90 91 41 01 	lds	r25, 0x0141	; 0x800141 <startmsecCount.2016+0x3>
     df8:	dc da       	rcall	.-2632   	; 0x3b2 <elaspMsecTime>
     dfa:	64 36       	cpi	r22, 0x64	; 100
     dfc:	71 05       	cpc	r23, r1
     dfe:	81 05       	cpc	r24, r1
     e00:	91 05       	cpc	r25, r1
     e02:	28 f4       	brcc	.+10     	; 0xe0e <readLoad+0x32>
     e04:	80 91 ce 01 	lds	r24, 0x01CE	; 0x8001ce <loadWeight>
     e08:	90 91 cf 01 	lds	r25, 0x01CF	; 0x8001cf <loadWeight+0x1>
     e0c:	c7 c0       	rjmp	.+398    	; 0xf9c <readLoad+0x1c0>
	startmsecCount = timerCounter2;
     e0e:	80 91 84 01 	lds	r24, 0x0184	; 0x800184 <timerCounter2>
     e12:	90 91 85 01 	lds	r25, 0x0185	; 0x800185 <timerCounter2+0x1>
     e16:	a0 91 86 01 	lds	r26, 0x0186	; 0x800186 <timerCounter2+0x2>
     e1a:	b0 91 87 01 	lds	r27, 0x0187	; 0x800187 <timerCounter2+0x3>
     e1e:	80 93 3e 01 	sts	0x013E, r24	; 0x80013e <startmsecCount.2016>
     e22:	90 93 3f 01 	sts	0x013F, r25	; 0x80013f <startmsecCount.2016+0x1>
     e26:	a0 93 40 01 	sts	0x0140, r26	; 0x800140 <startmsecCount.2016+0x2>
     e2a:	b0 93 41 01 	sts	0x0141, r27	; 0x800141 <startmsecCount.2016+0x3>

	if(	machineState == MODE_RUN) {
     e2e:	80 91 d0 01 	lds	r24, 0x01D0	; 0x8001d0 <machineState>
     e32:	81 11       	cpse	r24, r1
     e34:	22 c0       	rjmp	.+68     	; 0xe7a <readLoad+0x9e>
		if(adcWeightIn > 1020 ){
     e36:	80 91 b0 01 	lds	r24, 0x01B0	; 0x8001b0 <adcWeightIn>
     e3a:	90 91 b1 01 	lds	r25, 0x01B1	; 0x8001b1 <adcWeightIn+0x1>
     e3e:	8d 3f       	cpi	r24, 0xFD	; 253
     e40:	93 40       	sbci	r25, 0x03	; 3
     e42:	54 f0       	brlt	.+20     	; 0xe58 <readLoad+0x7c>
			tripNumber = ERR_ADC_OVER;		// 3
     e44:	83 e0       	ldi	r24, 0x03	; 3
     e46:	90 e0       	ldi	r25, 0x00	; 0
     e48:	90 93 a8 01 	sts	0x01A8, r25	; 0x8001a8 <tripNumber+0x1>
     e4c:	80 93 a7 01 	sts	0x01A7, r24	; 0x8001a7 <tripNumber>
			enterModeError(tripNumber);
     e50:	b5 d2       	rcall	.+1386   	; 0x13bc <enterModeError>
			return 0;
     e52:	80 e0       	ldi	r24, 0x00	; 0
     e54:	90 e0       	ldi	r25, 0x00	; 0
     e56:	a2 c0       	rjmp	.+324    	; 0xf9c <readLoad+0x1c0>
		} else if ( adcWeightIn <= 0 ){
     e58:	80 91 b0 01 	lds	r24, 0x01B0	; 0x8001b0 <adcWeightIn>
     e5c:	90 91 b1 01 	lds	r25, 0x01B1	; 0x8001b1 <adcWeightIn+0x1>
     e60:	18 16       	cp	r1, r24
     e62:	19 06       	cpc	r1, r25
     e64:	54 f0       	brlt	.+20     	; 0xe7a <readLoad+0x9e>
			tripNumber = ERR_ADC_UNDER; // 4
     e66:	84 e0       	ldi	r24, 0x04	; 4
     e68:	90 e0       	ldi	r25, 0x00	; 0
     e6a:	90 93 a8 01 	sts	0x01A8, r25	; 0x8001a8 <tripNumber+0x1>
     e6e:	80 93 a7 01 	sts	0x01A7, r24	; 0x8001a7 <tripNumber>
			enterModeError(tripNumber);
     e72:	a4 d2       	rcall	.+1352   	; 0x13bc <enterModeError>
			return 0;		
     e74:	80 e0       	ldi	r24, 0x00	; 0
     e76:	90 e0       	ldi	r25, 0x00	; 0
     e78:	91 c0       	rjmp	.+290    	; 0xf9c <readLoad+0x1c0>
		}
	}

	weight1 = (int16_t) ( calcFactor * (adcWeightIn - codeAdcZero) / 1024) ;
     e7a:	a0 91 b0 01 	lds	r26, 0x01B0	; 0x8001b0 <adcWeightIn>
     e7e:	b0 91 b1 01 	lds	r27, 0x01B1	; 0x8001b1 <adcWeightIn+0x1>

	weightBuf[ringCountFilt] = weight1;
     e82:	e0 90 3c 01 	lds	r14, 0x013C	; 0x80013c <ringCountFilt.2013>
     e86:	f0 90 3d 01 	lds	r15, 0x013D	; 0x80013d <ringCountFilt.2013+0x1>
     e8a:	f7 01       	movw	r30, r14
     e8c:	ee 0f       	add	r30, r30
     e8e:	ff 1f       	adc	r31, r31
     e90:	e8 5d       	subi	r30, 0xD8	; 216
     e92:	fe 4f       	sbci	r31, 0xFE	; 254
     e94:	80 91 96 01 	lds	r24, 0x0196	; 0x800196 <codeAdcZero>
     e98:	90 91 97 01 	lds	r25, 0x0197	; 0x800197 <codeAdcZero+0x1>
     e9c:	a8 1b       	sub	r26, r24
     e9e:	b9 0b       	sbc	r27, r25
     ea0:	20 91 a3 01 	lds	r18, 0x01A3	; 0x8001a3 <calcFactor>
     ea4:	30 91 a4 01 	lds	r19, 0x01A4	; 0x8001a4 <calcFactor+0x1>
     ea8:	40 91 a5 01 	lds	r20, 0x01A5	; 0x8001a5 <calcFactor+0x2>
     eac:	50 91 a6 01 	lds	r21, 0x01A6	; 0x8001a6 <calcFactor+0x3>
     eb0:	91 d6       	rcall	.+3362   	; 0x1bd4 <__mulshisi3>
     eb2:	8b 01       	movw	r16, r22
     eb4:	9c 01       	movw	r18, r24
     eb6:	99 23       	and	r25, r25
     eb8:	24 f4       	brge	.+8      	; 0xec2 <readLoad+0xe6>
     eba:	01 50       	subi	r16, 0x01	; 1
     ebc:	1c 4f       	sbci	r17, 0xFC	; 252
     ebe:	2f 4f       	sbci	r18, 0xFF	; 255
     ec0:	3f 4f       	sbci	r19, 0xFF	; 255
     ec2:	d9 01       	movw	r26, r18
     ec4:	c8 01       	movw	r24, r16
     ec6:	07 2e       	mov	r0, r23
     ec8:	7a e0       	ldi	r23, 0x0A	; 10
     eca:	b5 95       	asr	r27
     ecc:	a7 95       	ror	r26
     ece:	97 95       	ror	r25
     ed0:	87 95       	ror	r24
     ed2:	7a 95       	dec	r23
     ed4:	d1 f7       	brne	.-12     	; 0xeca <readLoad+0xee>
     ed6:	70 2d       	mov	r23, r0
     ed8:	91 83       	std	Z+1, r25	; 0x01
     eda:	80 83       	st	Z, r24
	ringCountFilt = (ringCountFilt > 8 ) ? 0 : ringCountFilt +1;
     edc:	89 e0       	ldi	r24, 0x09	; 9
     ede:	e8 16       	cp	r14, r24
     ee0:	f1 04       	cpc	r15, r1
     ee2:	1c f4       	brge	.+6      	; 0xeea <readLoad+0x10e>
     ee4:	c7 01       	movw	r24, r14
     ee6:	01 96       	adiw	r24, 0x01	; 1
     ee8:	02 c0       	rjmp	.+4      	; 0xeee <readLoad+0x112>
     eea:	80 e0       	ldi	r24, 0x00	; 0
     eec:	90 e0       	ldi	r25, 0x00	; 0
     eee:	90 93 3d 01 	sts	0x013D, r25	; 0x80013d <ringCountFilt.2013+0x1>
     ef2:	80 93 3c 01 	sts	0x013C, r24	; 0x80013c <ringCountFilt.2013>
	
//--- filt proc	
	j = ringCountFilt;
	weightSum = 0;
	for ( i = 0; i < (codeFilt + 1) ; i++ ){
     ef6:	20 91 ad 01 	lds	r18, 0x01AD	; 0x8001ad <codeFilt>
     efa:	30 91 ae 01 	lds	r19, 0x01AE	; 0x8001ae <codeFilt+0x1>
     efe:	2f 5f       	subi	r18, 0xFF	; 255
     f00:	3f 4f       	sbci	r19, 0xFF	; 255
     f02:	12 16       	cp	r1, r18
     f04:	13 06       	cpc	r1, r19
     f06:	04 f5       	brge	.+64     	; 0xf48 <readLoad+0x16c>
     f08:	c1 2c       	mov	r12, r1
     f0a:	d1 2c       	mov	r13, r1
     f0c:	76 01       	movw	r14, r12
     f0e:	a0 e0       	ldi	r26, 0x00	; 0
     f10:	b0 e0       	ldi	r27, 0x00	; 0
		weightSum += weightBuf[j];
     f12:	fc 01       	movw	r30, r24
     f14:	ee 0f       	add	r30, r30
     f16:	ff 1f       	adc	r31, r31
     f18:	e8 5d       	subi	r30, 0xD8	; 216
     f1a:	fe 4f       	sbci	r31, 0xFE	; 254
     f1c:	40 81       	ld	r20, Z
     f1e:	51 81       	ldd	r21, Z+1	; 0x01
     f20:	05 2e       	mov	r0, r21
     f22:	00 0c       	add	r0, r0
     f24:	66 0b       	sbc	r22, r22
     f26:	77 0b       	sbc	r23, r23
     f28:	c4 0e       	add	r12, r20
     f2a:	d5 1e       	adc	r13, r21
     f2c:	e6 1e       	adc	r14, r22
     f2e:	f7 1e       	adc	r15, r23
		j = ( j < 1 ) ?  9 : j - 1;
     f30:	18 16       	cp	r1, r24
     f32:	19 06       	cpc	r1, r25
     f34:	14 f4       	brge	.+4      	; 0xf3a <readLoad+0x15e>
     f36:	01 97       	sbiw	r24, 0x01	; 1
     f38:	02 c0       	rjmp	.+4      	; 0xf3e <readLoad+0x162>
     f3a:	89 e0       	ldi	r24, 0x09	; 9
     f3c:	90 e0       	ldi	r25, 0x00	; 0
	ringCountFilt = (ringCountFilt > 8 ) ? 0 : ringCountFilt +1;
	
//--- filt proc	
	j = ringCountFilt;
	weightSum = 0;
	for ( i = 0; i < (codeFilt + 1) ; i++ ){
     f3e:	11 96       	adiw	r26, 0x01	; 1
     f40:	a2 17       	cp	r26, r18
     f42:	b3 07       	cpc	r27, r19
     f44:	34 f3       	brlt	.-52     	; 0xf12 <readLoad+0x136>
     f46:	03 c0       	rjmp	.+6      	; 0xf4e <readLoad+0x172>
	weightBuf[ringCountFilt] = weight1;
	ringCountFilt = (ringCountFilt > 8 ) ? 0 : ringCountFilt +1;
	
//--- filt proc	
	j = ringCountFilt;
	weightSum = 0;
     f48:	c1 2c       	mov	r12, r1
     f4a:	d1 2c       	mov	r13, r1
     f4c:	76 01       	movw	r14, r12
	for ( i = 0; i < (codeFilt + 1) ; i++ ){
		weightSum += weightBuf[j];
		j = ( j < 1 ) ?  9 : j - 1;
	}	
	weight1 = weightSum / ( codeFilt + 1);	 
     f4e:	03 2e       	mov	r0, r19
     f50:	00 0c       	add	r0, r0
     f52:	44 0b       	sbc	r20, r20
     f54:	55 0b       	sbc	r21, r21
     f56:	c7 01       	movw	r24, r14
     f58:	b6 01       	movw	r22, r12
     f5a:	17 d6       	rcall	.+3118   	; 0x1b8a <__divmodsi4>
     f5c:	c9 01       	movw	r24, r18

//-- divison proc
	if( codeDivision == 0 ) weight1 = ( ( weight1 + 4)  / 10 ) * 10;
     f5e:	e0 91 a1 01 	lds	r30, 0x01A1	; 0x8001a1 <codeDivision>
     f62:	f0 91 a2 01 	lds	r31, 0x01A2	; 0x8001a2 <codeDivision+0x1>
     f66:	30 97       	sbiw	r30, 0x00	; 0
     f68:	81 f4       	brne	.+32     	; 0xf8a <readLoad+0x1ae>
     f6a:	04 96       	adiw	r24, 0x04	; 4
     f6c:	6a e0       	ldi	r22, 0x0A	; 10
     f6e:	70 e0       	ldi	r23, 0x00	; 0
     f70:	f9 d5       	rcall	.+3058   	; 0x1b64 <__divmodhi4>
     f72:	cb 01       	movw	r24, r22
     f74:	88 0f       	add	r24, r24
     f76:	99 1f       	adc	r25, r25
     f78:	66 0f       	add	r22, r22
     f7a:	77 1f       	adc	r23, r23
     f7c:	66 0f       	add	r22, r22
     f7e:	77 1f       	adc	r23, r23
     f80:	66 0f       	add	r22, r22
     f82:	77 1f       	adc	r23, r23
     f84:	86 0f       	add	r24, r22
     f86:	97 1f       	adc	r25, r23
	else weight1 = ( weight1  / codeDivision ) * codeDivision;
     f88:	09 c0       	rjmp	.+18     	; 0xf9c <readLoad+0x1c0>
     f8a:	bf 01       	movw	r22, r30
     f8c:	eb d5       	rcall	.+3030   	; 0x1b64 <__divmodhi4>
     f8e:	e6 9f       	mul	r30, r22
     f90:	c0 01       	movw	r24, r0
     f92:	e7 9f       	mul	r30, r23
     f94:	90 0d       	add	r25, r0
     f96:	f6 9f       	mul	r31, r22
     f98:	90 0d       	add	r25, r0
     f9a:	11 24       	eor	r1, r1

	return weight1;	
}
     f9c:	1f 91       	pop	r17
     f9e:	0f 91       	pop	r16
     fa0:	ff 90       	pop	r15
     fa2:	ef 90       	pop	r14
     fa4:	df 90       	pop	r13
     fa6:	cf 90       	pop	r12
     fa8:	08 95       	ret

00000faa <main>:

int main(void)
{
	uint8_t keyBuf;
	
	initGpio();
     faa:	2a de       	rcall	.-940    	; 0xc00 <initGpio>
	
	initADC();	
     fac:	d0 da       	rcall	.-2656   	; 0x54e <initADC>
	
	initUart();
     fae:	fa d4       	rcall	.+2548   	; 0x19a4 <initUart>
	
	sei();	

    initUart();
     fb0:	78 94       	sei

	readRomData();
     fb2:	f8 d4       	rcall	.+2544   	; 0x19a4 <initUart>
     fb4:	86 d9       	rcall	.-3316   	; 0x2c2 <readRomData>
	initCodeData();		
     fb6:	b4 de       	rcall	.-664    	; 0xd20 <initCodeData>
	loadWeight = readLoad();
     fb8:	11 df       	rcall	.-478    	; 0xddc <readLoad>
     fba:	90 93 cf 01 	sts	0x01CF, r25	; 0x8001cf <loadWeight+0x1>
     fbe:	80 93 ce 01 	sts	0x01CE, r24	; 0x8001ce <loadWeight>
	enterModeRun();
     fc2:	3a d0       	rcall	.+116    	; 0x1038 <enterModeRun>
}

int returnVal;

int main(void)
{
     fc4:	10 e0       	ldi	r17, 0x00	; 0
    while (1) 
    {	
		procRelayOut( );
		sciCommandProc( );	
		command = getCommand();
		if(command != BTN_NULL ) keyBuf = 1;
     fc6:	d1 e0       	ldi	r29, 0x01	; 1
}

int returnVal;

int main(void)
{
     fc8:	c1 2f       	mov	r28, r17
	initCodeData();		
	loadWeight = readLoad();
	enterModeRun();
    while (1) 
    {	
		procRelayOut( );
     fca:	c2 de       	rcall	.-636    	; 0xd50 <procRelayOut>
		sciCommandProc( );	
     fcc:	aa d5       	rcall	.+2900   	; 0x1b22 <sciCommandProc>
     fce:	2b db       	rcall	.-2474   	; 0x626 <getButton>
	}	
}

uint8_t getCommand(void)
{
	return getButton();
     fd0:	80 93 9a 01 	sts	0x019A, r24	; 0x80019a <command>
	enterModeRun();
    while (1) 
    {	
		procRelayOut( );
		sciCommandProc( );	
		command = getCommand();
     fd4:	8f 3f       	cpi	r24, 0xFF	; 255
     fd6:	09 f0       	breq	.+2      	; 0xfda <main+0x30>
		if(command != BTN_NULL ) keyBuf = 1;
     fd8:	cd 2f       	mov	r28, r29
     fda:	00 df       	rcall	.-512    	; 0xddc <readLoad>
     fdc:	90 93 cf 01 	sts	0x01CF, r25	; 0x8001cf <loadWeight+0x1>
		loadWeight = readLoad();
     fe0:	80 93 ce 01 	sts	0x01CE, r24	; 0x8001ce <loadWeight>
     fe4:	80 91 d0 01 	lds	r24, 0x01D0	; 0x8001d0 <machineState>
     fe8:	82 30       	cpi	r24, 0x02	; 2
		switch( machineState ){
     fea:	99 f0       	breq	.+38     	; 0x1012 <main+0x68>
     fec:	28 f4       	brcc	.+10     	; 0xff8 <main+0x4e>
     fee:	88 23       	and	r24, r24
     ff0:	41 f0       	breq	.+16     	; 0x1002 <main+0x58>
     ff2:	81 30       	cpi	r24, 0x01	; 1
     ff4:	51 f0       	breq	.+20     	; 0x100a <main+0x60>
     ff6:	19 c0       	rjmp	.+50     	; 0x102a <main+0x80>
     ff8:	83 30       	cpi	r24, 0x03	; 3
     ffa:	79 f0       	breq	.+30     	; 0x101a <main+0x70>
     ffc:	84 30       	cpi	r24, 0x04	; 4
     ffe:	89 f0       	breq	.+34     	; 0x1022 <main+0x78>
    1000:	14 c0       	rjmp	.+40     	; 0x102a <main+0x80>
    1002:	80 91 9a 01 	lds	r24, 0x019A	; 0x80019a <command>
			case MODE_RUN			: modeRun(command)			; break;
    1006:	11 d1       	rcall	.+546    	; 0x122a <modeRun>
    1008:	11 c0       	rjmp	.+34     	; 0x102c <main+0x82>
    100a:	80 91 9a 01 	lds	r24, 0x019A	; 0x80019a <command>
			case MODE_PASSWD		: modePassWord(command)		; break;
    100e:	00 d2       	rcall	.+1024   	; 0x1410 <modePassWord>
    1010:	0d c0       	rjmp	.+26     	; 0x102c <main+0x82>
			case MODE_SELECT_CODE	: modeSelectCode(command)	; break;
    1012:	80 91 9a 01 	lds	r24, 0x019A	; 0x80019a <command>
    1016:	1d d1       	rcall	.+570    	; 0x1252 <modeSelectCode>
    1018:	09 c0       	rjmp	.+18     	; 0x102c <main+0x82>
			case MODE_CHANGE_CODE	: modeChangeCode(command)	; break;
    101a:	80 91 9a 01 	lds	r24, 0x019A	; 0x80019a <command>
    101e:	71 d2       	rcall	.+1250   	; 0x1502 <modeChangeCode>
    1020:	05 c0       	rjmp	.+10     	; 0x102c <main+0x82>
    1022:	80 91 9a 01 	lds	r24, 0x019A	; 0x80019a <command>
			case MODE_ERROR			: modeError(command)		; break;			
    1026:	55 d4       	rcall	.+2218   	; 0x18d2 <modeError>
    1028:	01 c0       	rjmp	.+2      	; 0x102c <main+0x82>
    102a:	06 d0       	rcall	.+12     	; 0x1038 <enterModeRun>
    102c:	c1 30       	cpi	r28, 0x01	; 1
			default					: enterModeRun( )	; break;
    102e:	69 f6       	brne	.-102    	; 0xfca <main+0x20>
    1030:	fa da       	rcall	.-2572   	; 0x626 <getButton>
		}
		if(keyBuf ==  1){
    1032:	8f 3f       	cpi	r24, 0xFF	; 255
    1034:	e9 f7       	brne	.-6      	; 0x1030 <main+0x86>
	}	
}

uint8_t getCommand(void)
{
	return getButton();
    1036:	c8 cf       	rjmp	.-112    	; 0xfc8 <main+0x1e>

00001038 <enterModeRun>:
#include "header.h"
#include "extern.h"

void enterModeRun(void)
{
	initCodeData();
    1038:	73 de       	rcall	.-794    	; 0xd20 <initCodeData>
	machineState = MODE_RUN;
    103a:	10 92 d0 01 	sts	0x01D0, r1	; 0x8001d0 <machineState>
	loadWeight = readLoad();
    103e:	ce de       	rcall	.-612    	; 0xddc <readLoad>
    1040:	90 93 cf 01 	sts	0x01CF, r25	; 0x8001cf <loadWeight+0x1>
    1044:	80 93 ce 01 	sts	0x01CE, r24	; 0x8001ce <loadWeight>
	displayWeight(loadWeight);
    1048:	0b cb       	rjmp	.-2538   	; 0x660 <displayWeight>
    104a:	08 95       	ret

0000104c <enterModePassWord>:
}

void enterModePassWord(void)
{
	int i;
	machineState = MODE_PASSWD;
    104c:	81 e0       	ldi	r24, 0x01	; 1
    104e:	80 93 d0 01 	sts	0x01D0, r24	; 0x8001d0 <machineState>
	for( i = 0 ; i < 4 ; i++){
		passWord[i] = 0;	//
		fndData[i] = fndTableNum[0];
    1052:	80 91 04 01 	lds	r24, 0x0104	; 0x800104 <fndTableNum>
void enterModePassWord(void)
{
	int i;
	machineState = MODE_PASSWD;
	for( i = 0 ; i < 4 ; i++){
		passWord[i] = 0;	//
    1056:	ad e9       	ldi	r26, 0x9D	; 157
    1058:	b1 e0       	ldi	r27, 0x01	; 1
    105a:	1c 92       	st	X, r1
		fndData[i] = fndTableNum[0];
    105c:	e9 ea       	ldi	r30, 0xA9	; 169
    105e:	f1 e0       	ldi	r31, 0x01	; 1
    1060:	80 83       	st	Z, r24
void enterModePassWord(void)
{
	int i;
	machineState = MODE_PASSWD;
	for( i = 0 ; i < 4 ; i++){
		passWord[i] = 0;	//
    1062:	11 96       	adiw	r26, 0x01	; 1
    1064:	1c 92       	st	X, r1
    1066:	11 97       	sbiw	r26, 0x01	; 1
		fndData[i] = fndTableNum[0];
    1068:	81 83       	std	Z+1, r24	; 0x01
void enterModePassWord(void)
{
	int i;
	machineState = MODE_PASSWD;
	for( i = 0 ; i < 4 ; i++){
		passWord[i] = 0;	//
    106a:	12 96       	adiw	r26, 0x02	; 2
    106c:	1c 92       	st	X, r1
    106e:	12 97       	sbiw	r26, 0x02	; 2
		fndData[i] = fndTableNum[0];
    1070:	82 83       	std	Z+2, r24	; 0x02
void enterModePassWord(void)
{
	int i;
	machineState = MODE_PASSWD;
	for( i = 0 ; i < 4 ; i++){
		passWord[i] = 0;	//
    1072:	13 96       	adiw	r26, 0x03	; 3
    1074:	1c 92       	st	X, r1
		fndData[i] = fndTableNum[0];
    1076:	83 83       	std	Z+3, r24	; 0x03
	}
	blinkCmdFlag = 0x08;
    1078:	88 e0       	ldi	r24, 0x08	; 8
    107a:	80 93 c9 01 	sts	0x01C9, r24	; 0x8001c9 <blinkCmdFlag>
	editDigitPoint = 3;		// 1000
    107e:	83 e0       	ldi	r24, 0x03	; 3
    1080:	80 93 c4 01 	sts	0x01C4, r24	; 0x8001c4 <editDigitPoint>
    1084:	08 95       	ret

00001086 <enterModeSelectCode>:
}

void enterModeSelectCode(void)
{
	machineState = MODE_SELECT_CODE;
    1086:	82 e0       	ldi	r24, 0x02	; 2
    1088:	80 93 d0 01 	sts	0x01D0, r24	; 0x8001d0 <machineState>
	codeNumber = 0;
    108c:	10 92 99 01 	sts	0x0199, r1	; 0x800199 <codeNumber+0x1>
    1090:	10 92 98 01 	sts	0x0198, r1	; 0x800198 <codeNumber>
	fndData[3] = fndTableChar['P' - 'A'];
    1094:	e9 ea       	ldi	r30, 0xA9	; 169
    1096:	f1 e0       	ldi	r31, 0x01	; 1
    1098:	ae e0       	ldi	r26, 0x0E	; 14
    109a:	b1 e0       	ldi	r27, 0x01	; 1
    109c:	1f 96       	adiw	r26, 0x0f	; 15
    109e:	8c 91       	ld	r24, X
    10a0:	1f 97       	sbiw	r26, 0x0f	; 15
    10a2:	83 83       	std	Z+3, r24	; 0x03
	fndData[2] = fndTableChar['O' - 'A'];
    10a4:	1e 96       	adiw	r26, 0x0e	; 14
    10a6:	8c 91       	ld	r24, X
    10a8:	1e 97       	sbiw	r26, 0x0e	; 14
    10aa:	82 83       	std	Z+2, r24	; 0x02
	fndData[1] = fndTableChar['I' - 'A'];
    10ac:	18 96       	adiw	r26, 0x08	; 8
    10ae:	8c 91       	ld	r24, X
    10b0:	18 97       	sbiw	r26, 0x08	; 8
    10b2:	81 83       	std	Z+1, r24	; 0x01
	fndData[0] = fndTableChar['T' - 'A'];
    10b4:	53 96       	adiw	r26, 0x13	; 19
    10b6:	8c 91       	ld	r24, X
    10b8:	80 83       	st	Z, r24
	blinkCmdFlag = 0x0f;	//
    10ba:	8f e0       	ldi	r24, 0x0F	; 15
    10bc:	80 93 c9 01 	sts	0x01C9, r24	; 0x8001c9 <blinkCmdFlag>
    10c0:	08 95       	ret

000010c2 <setEditTmpFndData>:
}

void setEditTmpFndData(int16_t arg1)
{		
    10c2:	cf 93       	push	r28
    10c4:	df 93       	push	r29
    10c6:	9c 01       	movw	r18, r24
	tmpFndData[3] = arg1 / 1000;
    10c8:	ea eb       	ldi	r30, 0xBA	; 186
    10ca:	f1 e0       	ldi	r31, 0x01	; 1
    10cc:	68 ee       	ldi	r22, 0xE8	; 232
    10ce:	73 e0       	ldi	r23, 0x03	; 3
    10d0:	49 d5       	rcall	.+2706   	; 0x1b64 <__divmodhi4>
    10d2:	63 83       	std	Z+3, r22	; 0x03
	tmpFndData[2] = (arg1 % 1000) /100;
    10d4:	c4 e6       	ldi	r28, 0x64	; 100
    10d6:	d0 e0       	ldi	r29, 0x00	; 0
    10d8:	be 01       	movw	r22, r28
    10da:	44 d5       	rcall	.+2696   	; 0x1b64 <__divmodhi4>
    10dc:	62 83       	std	Z+2, r22	; 0x02
	tmpFndData[1] = ( arg1 % 100 ) / 10;
    10de:	c9 01       	movw	r24, r18
    10e0:	be 01       	movw	r22, r28
    10e2:	40 d5       	rcall	.+2688   	; 0x1b64 <__divmodhi4>
    10e4:	ca e0       	ldi	r28, 0x0A	; 10
    10e6:	d0 e0       	ldi	r29, 0x00	; 0
    10e8:	be 01       	movw	r22, r28
    10ea:	3c d5       	rcall	.+2680   	; 0x1b64 <__divmodhi4>
    10ec:	61 83       	std	Z+1, r22	; 0x01
	tmpFndData[0] = arg1 % 10 ;
    10ee:	c9 01       	movw	r24, r18
    10f0:	be 01       	movw	r22, r28
    10f2:	38 d5       	rcall	.+2672   	; 0x1b64 <__divmodhi4>
    10f4:	80 83       	st	Z, r24
    10f6:	10 92 c4 01 	sts	0x01C4, r1	; 0x8001c4 <editDigitPoint>

	editDigitPoint = 0;		
	blinkCmdFlag = 0x01;
    10fa:	81 e0       	ldi	r24, 0x01	; 1
    10fc:	80 93 c9 01 	sts	0x01C9, r24	; 0x8001c9 <blinkCmdFlag>
	displayWeight1(arg1);
    1100:	c9 01       	movw	r24, r18
    1102:	83 db       	rcall	.-2298   	; 0x80a <displayWeight1>
    1104:	df 91       	pop	r29
}
    1106:	cf 91       	pop	r28
    1108:	08 95       	ret

0000110a <enterModeChangeCode>:
    110a:	83 e0       	ldi	r24, 0x03	; 3

void enterModeChangeCode(void)
{
	machineState = MODE_CHANGE_CODE;
    110c:	80 93 d0 01 	sts	0x01D0, r24	; 0x8001d0 <machineState>

	switch(codeNumber){	
    1110:	e0 91 98 01 	lds	r30, 0x0198	; 0x800198 <codeNumber>
    1114:	f0 91 99 01 	lds	r31, 0x0199	; 0x800199 <codeNumber+0x1>
    1118:	e8 30       	cpi	r30, 0x08	; 8
    111a:	f1 05       	cpc	r31, r1
    111c:	08 f0       	brcs	.+2      	; 0x1120 <enterModeChangeCode+0x16>
    111e:	82 c0       	rjmp	.+260    	; 0x1224 <enterModeChangeCode+0x11a>
    1120:	e0 5b       	subi	r30, 0xB0	; 176
    1122:	ff 4f       	sbci	r31, 0xFF	; 255
    1124:	4e c5       	rjmp	.+2716   	; 0x1bc2 <__tablejump2__>
	case CODE_POINT:
		tmpCodeData = codePoint;
    1126:	80 91 92 01 	lds	r24, 0x0192	; 0x800192 <codePoint>
    112a:	90 91 93 01 	lds	r25, 0x0193	; 0x800193 <codePoint+0x1>
    112e:	90 93 91 01 	sts	0x0191, r25	; 0x800191 <tmpCodeData+0x1>
    1132:	80 93 90 01 	sts	0x0190, r24	; 0x800190 <tmpCodeData>
		if(tmpCodeData == 0) blinkCmdFlag = 1;
    1136:	00 97       	sbiw	r24, 0x00	; 0
    1138:	21 f4       	brne	.+8      	; 0x1142 <enterModeChangeCode+0x38>
    113a:	81 e0       	ldi	r24, 0x01	; 1
    113c:	80 93 c9 01 	sts	0x01C9, r24	; 0x8001c9 <blinkCmdFlag>
    1140:	14 c0       	rjmp	.+40     	; 0x116a <enterModeChangeCode+0x60>
		else if(tmpCodeData == 1) blinkCmdFlag = 2;
    1142:	81 30       	cpi	r24, 0x01	; 1
    1144:	91 05       	cpc	r25, r1
    1146:	21 f4       	brne	.+8      	; 0x1150 <enterModeChangeCode+0x46>
    1148:	82 e0       	ldi	r24, 0x02	; 2
    114a:	80 93 c9 01 	sts	0x01C9, r24	; 0x8001c9 <blinkCmdFlag>
    114e:	0d c0       	rjmp	.+26     	; 0x116a <enterModeChangeCode+0x60>
		else if(tmpCodeData == 2) blinkCmdFlag = 4;
    1150:	02 97       	sbiw	r24, 0x02	; 2
    1152:	21 f4       	brne	.+8      	; 0x115c <enterModeChangeCode+0x52>
    1154:	84 e0       	ldi	r24, 0x04	; 4
    1156:	80 93 c9 01 	sts	0x01C9, r24	; 0x8001c9 <blinkCmdFlag>
    115a:	07 c0       	rjmp	.+14     	; 0x116a <enterModeChangeCode+0x60>
		else {
			tmpCodeData = 0;
    115c:	10 92 91 01 	sts	0x0191, r1	; 0x800191 <tmpCodeData+0x1>
    1160:	10 92 90 01 	sts	0x0190, r1	; 0x800190 <tmpCodeData>
			blinkCmdFlag = 1; 
    1164:	81 e0       	ldi	r24, 0x01	; 1
    1166:	80 93 c9 01 	sts	0x01C9, r24	; 0x8001c9 <blinkCmdFlag>
		}		
		displayWeight1(loadWeight);
    116a:	80 91 ce 01 	lds	r24, 0x01CE	; 0x8001ce <loadWeight>
    116e:	90 91 cf 01 	lds	r25, 0x01CF	; 0x8001cf <loadWeight+0x1>
    1172:	4b cb       	rjmp	.-2410   	; 0x80a <displayWeight1>
		break;
    1174:	08 95       	ret
	case CODE_FILT:
		tmpCodeData = codeFilt;	//
    1176:	80 91 ad 01 	lds	r24, 0x01AD	; 0x8001ad <codeFilt>
    117a:	90 91 ae 01 	lds	r25, 0x01AE	; 0x8001ae <codeFilt+0x1>
    117e:	90 93 91 01 	sts	0x0191, r25	; 0x800191 <tmpCodeData+0x1>
    1182:	80 93 90 01 	sts	0x0190, r24	; 0x800190 <tmpCodeData>
		blinkCmdFlag = 1;
    1186:	21 e0       	ldi	r18, 0x01	; 1
    1188:	20 93 c9 01 	sts	0x01C9, r18	; 0x8001c9 <blinkCmdFlag>
		displayNumber1(tmpCodeData);		// no point add space 
    118c:	f6 cb       	rjmp	.-2068   	; 0x97a <displayNumber1>
		break;
    118e:	08 95       	ret
	case CODE_DIVISION:
		tmpCodeData = codeDivision;	//
    1190:	80 91 a1 01 	lds	r24, 0x01A1	; 0x8001a1 <codeDivision>
    1194:	90 91 a2 01 	lds	r25, 0x01A2	; 0x8001a2 <codeDivision+0x1>
    1198:	90 93 91 01 	sts	0x0191, r25	; 0x800191 <tmpCodeData+0x1>
    119c:	80 93 90 01 	sts	0x0190, r24	; 0x800190 <tmpCodeData>
		blinkCmdFlag = 1;
    11a0:	21 e0       	ldi	r18, 0x01	; 1
    11a2:	20 93 c9 01 	sts	0x01C9, r18	; 0x8001c9 <blinkCmdFlag>
		displayNumber1(tmpCodeData);		// no point add space
    11a6:	e9 cb       	rjmp	.-2094   	; 0x97a <displayNumber1>
		break;
    11a8:	08 95       	ret
	case CODE_AUTO:
		tmpCodeData = 0;
    11aa:	10 92 91 01 	sts	0x0191, r1	; 0x800191 <tmpCodeData+0x1>
    11ae:	10 92 90 01 	sts	0x0190, r1	; 0x800190 <tmpCodeData>
		blinkCmdFlag = 0x0f;	//
    11b2:	8f e0       	ldi	r24, 0x0F	; 15
    11b4:	80 93 c9 01 	sts	0x01C9, r24	; 0x8001c9 <blinkCmdFlag>
			fndData[3] = 0x00;
			fndData[2] = fndTableChar['Y' - 'A'];
			fndData[1] = fndTableChar['E' - 'A'];
			fndData[0] = fndTableChar['S' - 'A'];
		} else {
			fndData[3] = 0x00;
    11b8:	e9 ea       	ldi	r30, 0xA9	; 169
    11ba:	f1 e0       	ldi	r31, 0x01	; 1
    11bc:	13 82       	std	Z+3, r1	; 0x03
			fndData[2] = fndTableChar['N' - 'A'];
    11be:	ae e0       	ldi	r26, 0x0E	; 14
    11c0:	b1 e0       	ldi	r27, 0x01	; 1
    11c2:	1d 96       	adiw	r26, 0x0d	; 13
    11c4:	8c 91       	ld	r24, X
    11c6:	1d 97       	sbiw	r26, 0x0d	; 13
    11c8:	82 83       	std	Z+2, r24	; 0x02
			fndData[1] = fndTableChar['O' - 'A'];
    11ca:	1e 96       	adiw	r26, 0x0e	; 14
    11cc:	8c 91       	ld	r24, X
    11ce:	81 83       	std	Z+1, r24	; 0x01
			fndData[0] = 0x00;
    11d0:	10 82       	st	Z, r1
    11d2:	08 95       	ret
		}
		break;
	case CODE_ALARM:
		tmpCodeData = codeAlarm;
    11d4:	80 91 b6 01 	lds	r24, 0x01B6	; 0x8001b6 <codeAlarm>
    11d8:	90 91 b7 01 	lds	r25, 0x01B7	; 0x8001b7 <codeAlarm+0x1>
    11dc:	90 93 91 01 	sts	0x0191, r25	; 0x800191 <tmpCodeData+0x1>
    11e0:	80 93 90 01 	sts	0x0190, r24	; 0x800190 <tmpCodeData>
		setEditTmpFndData(tmpCodeData);
    11e4:	6e cf       	rjmp	.-292    	; 0x10c2 <setEditTmpFndData>
		break;
    11e6:	08 95       	ret
	case CODE_OVER:
		tmpCodeData = codeOver;
    11e8:	80 91 d3 01 	lds	r24, 0x01D3	; 0x8001d3 <codeOver>
    11ec:	90 91 d4 01 	lds	r25, 0x01D4	; 0x8001d4 <codeOver+0x1>
    11f0:	90 93 91 01 	sts	0x0191, r25	; 0x800191 <tmpCodeData+0x1>
    11f4:	80 93 90 01 	sts	0x0190, r24	; 0x800190 <tmpCodeData>
		setEditTmpFndData(tmpCodeData);
    11f8:	64 cf       	rjmp	.-312    	; 0x10c2 <setEditTmpFndData>
		break;
    11fa:	08 95       	ret
	case CODE_SETT:
		tmpCodeData = codeWeight;
    11fc:	80 91 c7 01 	lds	r24, 0x01C7	; 0x8001c7 <codeWeight>
    1200:	90 91 c8 01 	lds	r25, 0x01C8	; 0x8001c8 <codeWeight+0x1>
    1204:	90 93 91 01 	sts	0x0191, r25	; 0x800191 <tmpCodeData+0x1>
    1208:	80 93 90 01 	sts	0x0190, r24	; 0x800190 <tmpCodeData>
		setEditTmpFndData(tmpCodeData);
    120c:	5a cf       	rjmp	.-332    	; 0x10c2 <setEditTmpFndData>
		break;
    120e:	08 95       	ret
	case 7:
		editDigitPoint = 0;		// 1000
    1210:	10 92 c4 01 	sts	0x01C4, r1	; 0x8001c4 <editDigitPoint>
		blinkCmdFlag = 0x00;
    1214:	10 92 c9 01 	sts	0x01C9, r1	; 0x8001c9 <blinkCmdFlag>
		displayNumber(adcWeightIn);
    1218:	80 91 b0 01 	lds	r24, 0x01B0	; 0x8001b0 <adcWeightIn>
    121c:	90 91 b1 01 	lds	r25, 0x01B1	; 0x8001b1 <adcWeightIn+0x1>
		break;
    1220:	60 cc       	rjmp	.-1856   	; 0xae2 <displayNumber>
	default:
		systemErrProc(ERR_SYS_NO_CODE_NUMBER);
    1222:	08 95       	ret
    1224:	82 e3       	ldi	r24, 0x32	; 50
    1226:	d9 cd       	rjmp	.-1102   	; 0xdda <systemErrProc>
    1228:	08 95       	ret

0000122a <modeRun>:
	}
}

int modeRun(uint8_t cmd)
{
	if( cmd  == BTN_ENTER ){ 
    122a:	8f 37       	cpi	r24, 0x7F	; 127
    122c:	11 f4       	brne	.+4      	; 0x1232 <modeRun+0x8>
		enterModePassWord();
    122e:	0e df       	rcall	.-484    	; 0x104c <enterModePassWord>
		// enterModeSelectCode();
		return 0;
    1230:	0d c0       	rjmp	.+26     	; 0x124c <modeRun+0x22>
	}

	if( (PIND & 0x01) == 0) displayWeight(codeOver);
    1232:	80 99       	sbic	0x10, 0	; 16
    1234:	06 c0       	rjmp	.+12     	; 0x1242 <modeRun+0x18>
    1236:	80 91 d3 01 	lds	r24, 0x01D3	; 0x8001d3 <codeOver>
    123a:	90 91 d4 01 	lds	r25, 0x01D4	; 0x8001d4 <codeOver+0x1>
    123e:	10 da       	rcall	.-3040   	; 0x660 <displayWeight>
    1240:	05 c0       	rjmp	.+10     	; 0x124c <modeRun+0x22>
	else					displayWeight(loadWeight);
    1242:	80 91 ce 01 	lds	r24, 0x01CE	; 0x8001ce <loadWeight>
    1246:	90 91 cf 01 	lds	r25, 0x01CF	; 0x8001cf <loadWeight+0x1>
    124a:	0a da       	rcall	.-3052   	; 0x660 <displayWeight>
	return 0;
}
    124c:	80 e0       	ldi	r24, 0x00	; 0
    124e:	90 e0       	ldi	r25, 0x00	; 0
    1250:	08 95       	ret

00001252 <modeSelectCode>:
}

int modeSelectCode(uint8_t cmd)
{

	if( cmd == BTN_ENTER ){
    1252:	8f 37       	cpi	r24, 0x7F	; 127
    1254:	11 f4       	brne	.+4      	; 0x125a <modeSelectCode+0x8>
		enterModeChangeCode();
    1256:	59 df       	rcall	.-334    	; 0x110a <enterModeChangeCode>
		return 0;
    1258:	ae c0       	rjmp	.+348    	; 0x13b6 <modeSelectCode+0x164>
	}

	if(cmd == BTN_CANCEL){
    125a:	8f 3b       	cpi	r24, 0xBF	; 191
		enterModeRun();
    125c:	11 f4       	brne	.+4      	; 0x1262 <modeSelectCode+0x10>
    125e:	ec de       	rcall	.-552    	; 0x1038 <enterModeRun>
		return 0;
    1260:	aa c0       	rjmp	.+340    	; 0x13b6 <modeSelectCode+0x164>
	}
	
	if(cmd == BTN_UP){
    1262:	8f 3e       	cpi	r24, 0xEF	; 239
    1264:	09 f0       	breq	.+2      	; 0x1268 <modeSelectCode+0x16>
    1266:	a7 c0       	rjmp	.+334    	; 0x13b6 <modeSelectCode+0x164>
		codeNumber = ( codeNumber > 7 ) ? 0 : codeNumber +1;
    1268:	e0 91 98 01 	lds	r30, 0x0198	; 0x800198 <codeNumber>
    126c:	f0 91 99 01 	lds	r31, 0x0199	; 0x800199 <codeNumber+0x1>
    1270:	e8 30       	cpi	r30, 0x08	; 8
    1272:	f1 05       	cpc	r31, r1
    1274:	0c f0       	brlt	.+2      	; 0x1278 <modeSelectCode+0x26>
    1276:	9a c0       	rjmp	.+308    	; 0x13ac <modeSelectCode+0x15a>
    1278:	31 96       	adiw	r30, 0x01	; 1
    127a:	f0 93 99 01 	sts	0x0199, r31	; 0x800199 <codeNumber+0x1>
    127e:	e0 93 98 01 	sts	0x0198, r30	; 0x800198 <codeNumber>
		switch(codeNumber){
    1282:	e8 30       	cpi	r30, 0x08	; 8
    1284:	f1 05       	cpc	r31, r1
    1286:	08 f0       	brcs	.+2      	; 0x128a <modeSelectCode+0x38>
    1288:	8f c0       	rjmp	.+286    	; 0x13a8 <modeSelectCode+0x156>
    128a:	e8 5a       	subi	r30, 0xA8	; 168
    128c:	ff 4f       	sbci	r31, 0xFF	; 255
    128e:	99 c4       	rjmp	.+2354   	; 0x1bc2 <__tablejump2__>
			case CODE_POINT :
				fndData[3] = fndTableChar['P' - 'A'];
    1290:	e9 ea       	ldi	r30, 0xA9	; 169
    1292:	f1 e0       	ldi	r31, 0x01	; 1
    1294:	ae e0       	ldi	r26, 0x0E	; 14
    1296:	b1 e0       	ldi	r27, 0x01	; 1
    1298:	1f 96       	adiw	r26, 0x0f	; 15
    129a:	8c 91       	ld	r24, X
    129c:	1f 97       	sbiw	r26, 0x0f	; 15
    129e:	83 83       	std	Z+3, r24	; 0x03
				fndData[2] = fndTableChar['O' - 'A'];
    12a0:	1e 96       	adiw	r26, 0x0e	; 14
    12a2:	8c 91       	ld	r24, X
    12a4:	1e 97       	sbiw	r26, 0x0e	; 14
    12a6:	82 83       	std	Z+2, r24	; 0x02
				fndData[1] = fndTableChar['I' - 'A'];
    12a8:	18 96       	adiw	r26, 0x08	; 8
    12aa:	8c 91       	ld	r24, X
    12ac:	18 97       	sbiw	r26, 0x08	; 8
    12ae:	81 83       	std	Z+1, r24	; 0x01
				fndData[0] = fndTableChar['T' - 'A'];
    12b0:	53 96       	adiw	r26, 0x13	; 19
    12b2:	8c 91       	ld	r24, X
    12b4:	80 83       	st	Z, r24
				break;
    12b6:	7f c0       	rjmp	.+254    	; 0x13b6 <modeSelectCode+0x164>
			case CODE_FILT :
				fndData[3] = fndTableChar['F' - 'A'];
    12b8:	e9 ea       	ldi	r30, 0xA9	; 169
    12ba:	f1 e0       	ldi	r31, 0x01	; 1
    12bc:	ae e0       	ldi	r26, 0x0E	; 14
    12be:	b1 e0       	ldi	r27, 0x01	; 1
    12c0:	15 96       	adiw	r26, 0x05	; 5
    12c2:	8c 91       	ld	r24, X
    12c4:	15 97       	sbiw	r26, 0x05	; 5
    12c6:	83 83       	std	Z+3, r24	; 0x03
				fndData[2] = fndTableChar['I' - 'A'];
    12c8:	18 96       	adiw	r26, 0x08	; 8
    12ca:	8c 91       	ld	r24, X
    12cc:	18 97       	sbiw	r26, 0x08	; 8
    12ce:	82 83       	std	Z+2, r24	; 0x02
				fndData[1] = fndTableChar['L' - 'A'];
    12d0:	1b 96       	adiw	r26, 0x0b	; 11
    12d2:	8c 91       	ld	r24, X
    12d4:	1b 97       	sbiw	r26, 0x0b	; 11
    12d6:	81 83       	std	Z+1, r24	; 0x01
				fndData[0] = fndTableChar['T' - 'A'];
    12d8:	53 96       	adiw	r26, 0x13	; 19
    12da:	8c 91       	ld	r24, X
    12dc:	80 83       	st	Z, r24
				break;
    12de:	6b c0       	rjmp	.+214    	; 0x13b6 <modeSelectCode+0x164>
			case CODE_DIVISION :
				fndData[3] = fndTableChar['D' - 'A'];
    12e0:	e9 ea       	ldi	r30, 0xA9	; 169
    12e2:	f1 e0       	ldi	r31, 0x01	; 1
    12e4:	ae e0       	ldi	r26, 0x0E	; 14
    12e6:	b1 e0       	ldi	r27, 0x01	; 1
    12e8:	13 96       	adiw	r26, 0x03	; 3
    12ea:	8c 91       	ld	r24, X
    12ec:	13 97       	sbiw	r26, 0x03	; 3
    12ee:	83 83       	std	Z+3, r24	; 0x03
				fndData[2] = fndTableChar['I' - 'A'];
    12f0:	18 96       	adiw	r26, 0x08	; 8
    12f2:	8c 91       	ld	r24, X
    12f4:	18 97       	sbiw	r26, 0x08	; 8
    12f6:	82 83       	std	Z+2, r24	; 0x02
				fndData[1] = fndTableChar['V' - 'A'];
    12f8:	55 96       	adiw	r26, 0x15	; 21
    12fa:	9c 91       	ld	r25, X
    12fc:	91 83       	std	Z+1, r25	; 0x01
				fndData[0] = fndTableChar['I' - 'A'];
    12fe:	80 83       	st	Z, r24
				break;
    1300:	5a c0       	rjmp	.+180    	; 0x13b6 <modeSelectCode+0x164>
			case CODE_AUTO :
				fndData[3] = fndTableChar['A' - 'A'];
    1302:	e9 ea       	ldi	r30, 0xA9	; 169
    1304:	f1 e0       	ldi	r31, 0x01	; 1
    1306:	ae e0       	ldi	r26, 0x0E	; 14
    1308:	b1 e0       	ldi	r27, 0x01	; 1
    130a:	8c 91       	ld	r24, X
    130c:	83 83       	std	Z+3, r24	; 0x03
				fndData[2] = fndTableChar['U' - 'A'];
    130e:	54 96       	adiw	r26, 0x14	; 20
    1310:	8c 91       	ld	r24, X
    1312:	54 97       	sbiw	r26, 0x14	; 20
    1314:	82 83       	std	Z+2, r24	; 0x02
				fndData[1] = fndTableChar['T' - 'A'];
    1316:	53 96       	adiw	r26, 0x13	; 19
    1318:	8c 91       	ld	r24, X
    131a:	53 97       	sbiw	r26, 0x13	; 19
    131c:	81 83       	std	Z+1, r24	; 0x01
				fndData[0] = fndTableChar['O' - 'A'];
    131e:	1e 96       	adiw	r26, 0x0e	; 14
    1320:	8c 91       	ld	r24, X
    1322:	80 83       	st	Z, r24
				break;
    1324:	48 c0       	rjmp	.+144    	; 0x13b6 <modeSelectCode+0x164>
			case CODE_ALARM :
				fndData[3] = fndTableChar['A' - 'A'];
    1326:	ae e0       	ldi	r26, 0x0E	; 14
    1328:	b1 e0       	ldi	r27, 0x01	; 1
    132a:	8c 91       	ld	r24, X
    132c:	e9 ea       	ldi	r30, 0xA9	; 169
    132e:	f1 e0       	ldi	r31, 0x01	; 1
    1330:	83 83       	std	Z+3, r24	; 0x03
				fndData[2] = fndTableChar['L' - 'A'];
    1332:	1b 96       	adiw	r26, 0x0b	; 11
    1334:	9c 91       	ld	r25, X
    1336:	1b 97       	sbiw	r26, 0x0b	; 11
    1338:	92 83       	std	Z+2, r25	; 0x02
				fndData[1] = fndTableChar['A' - 'A'];
    133a:	81 83       	std	Z+1, r24	; 0x01
				fndData[0] = fndTableChar['R' - 'A'];
    133c:	51 96       	adiw	r26, 0x11	; 17
    133e:	8c 91       	ld	r24, X
    1340:	80 83       	st	Z, r24
				break;
    1342:	39 c0       	rjmp	.+114    	; 0x13b6 <modeSelectCode+0x164>
			case CODE_OVER :
				fndData[3] = fndTableChar['O' - 'A'];
    1344:	e9 ea       	ldi	r30, 0xA9	; 169
    1346:	f1 e0       	ldi	r31, 0x01	; 1
    1348:	ae e0       	ldi	r26, 0x0E	; 14
    134a:	b1 e0       	ldi	r27, 0x01	; 1
    134c:	1e 96       	adiw	r26, 0x0e	; 14
    134e:	8c 91       	ld	r24, X
    1350:	1e 97       	sbiw	r26, 0x0e	; 14
    1352:	83 83       	std	Z+3, r24	; 0x03
				fndData[2] = fndTableChar['V' - 'A'];
    1354:	55 96       	adiw	r26, 0x15	; 21
    1356:	8c 91       	ld	r24, X
    1358:	55 97       	sbiw	r26, 0x15	; 21
    135a:	82 83       	std	Z+2, r24	; 0x02
				fndData[1] = fndTableChar['E' - 'A'];
    135c:	14 96       	adiw	r26, 0x04	; 4
    135e:	8c 91       	ld	r24, X
    1360:	14 97       	sbiw	r26, 0x04	; 4
    1362:	81 83       	std	Z+1, r24	; 0x01
				fndData[0] = fndTableChar['R' - 'A'];
    1364:	51 96       	adiw	r26, 0x11	; 17
    1366:	8c 91       	ld	r24, X
    1368:	80 83       	st	Z, r24
				break;
    136a:	25 c0       	rjmp	.+74     	; 0x13b6 <modeSelectCode+0x164>
			case CODE_SETT :
				fndData[3] = fndTableChar['S' - 'A'];
    136c:	e9 ea       	ldi	r30, 0xA9	; 169
    136e:	f1 e0       	ldi	r31, 0x01	; 1
    1370:	ae e0       	ldi	r26, 0x0E	; 14
    1372:	b1 e0       	ldi	r27, 0x01	; 1
    1374:	52 96       	adiw	r26, 0x12	; 18
    1376:	8c 91       	ld	r24, X
    1378:	52 97       	sbiw	r26, 0x12	; 18
    137a:	83 83       	std	Z+3, r24	; 0x03
				fndData[2] = fndTableChar['E' - 'A'];
    137c:	14 96       	adiw	r26, 0x04	; 4
    137e:	8c 91       	ld	r24, X
    1380:	14 97       	sbiw	r26, 0x04	; 4
    1382:	82 83       	std	Z+2, r24	; 0x02
				fndData[1] = fndTableChar['T' - 'A'];
    1384:	53 96       	adiw	r26, 0x13	; 19
    1386:	8c 91       	ld	r24, X
    1388:	81 83       	std	Z+1, r24	; 0x01
				fndData[0] = fndTableChar['T' - 'A'];
    138a:	80 83       	st	Z, r24
				break;
    138c:	14 c0       	rjmp	.+40     	; 0x13b6 <modeSelectCode+0x164>
			case CODE_ADC :
				fndData[3] = 0x40;
    138e:	e9 ea       	ldi	r30, 0xA9	; 169
    1390:	f1 e0       	ldi	r31, 0x01	; 1
    1392:	80 e4       	ldi	r24, 0x40	; 64
    1394:	83 83       	std	Z+3, r24	; 0x03
				fndData[2] = fndTableChar['A' - 'A'];
    1396:	ae e0       	ldi	r26, 0x0E	; 14
    1398:	b1 e0       	ldi	r27, 0x01	; 1
    139a:	9c 91       	ld	r25, X
    139c:	92 83       	std	Z+2, r25	; 0x02
				fndData[1] = fndTableChar['D' - 'A'];
    139e:	13 96       	adiw	r26, 0x03	; 3
    13a0:	9c 91       	ld	r25, X
				fndData[0] = 0x40;
    13a2:	91 83       	std	Z+1, r25	; 0x01
				break;
    13a4:	80 83       	st	Z, r24
			default:	
				enterModeSelectCode();			
    13a6:	07 c0       	rjmp	.+14     	; 0x13b6 <modeSelectCode+0x164>
    13a8:	6e de       	rcall	.-804    	; 0x1086 <enterModeSelectCode>
				break;
    13aa:	05 c0       	rjmp	.+10     	; 0x13b6 <modeSelectCode+0x164>
		enterModeRun();
		return 0;
	}
	
	if(cmd == BTN_UP){
		codeNumber = ( codeNumber > 7 ) ? 0 : codeNumber +1;
    13ac:	10 92 99 01 	sts	0x0199, r1	; 0x800199 <codeNumber+0x1>
    13b0:	10 92 98 01 	sts	0x0198, r1	; 0x800198 <codeNumber>
    13b4:	6d cf       	rjmp	.-294    	; 0x1290 <modeSelectCode+0x3e>

	if(cmd == BTN_LEFT){
		return 0;
	}
	return 0;		
}
    13b6:	80 e0       	ldi	r24, 0x00	; 0
    13b8:	90 e0       	ldi	r25, 0x00	; 0
    13ba:	08 95       	ret

000013bc <enterModeError>:
	return 0;
}

void enterModeError(int errNo)
{
	cntModeErr = timerCounter2;
    13bc:	40 91 84 01 	lds	r20, 0x0184	; 0x800184 <timerCounter2>
    13c0:	50 91 85 01 	lds	r21, 0x0185	; 0x800185 <timerCounter2+0x1>
    13c4:	60 91 86 01 	lds	r22, 0x0186	; 0x800186 <timerCounter2+0x2>
    13c8:	70 91 87 01 	lds	r23, 0x0187	; 0x800187 <timerCounter2+0x3>
    13cc:	40 93 80 01 	sts	0x0180, r20	; 0x800180 <cntModeErr>
    13d0:	50 93 81 01 	sts	0x0181, r21	; 0x800181 <cntModeErr+0x1>
    13d4:	60 93 82 01 	sts	0x0182, r22	; 0x800182 <cntModeErr+0x2>
    13d8:	70 93 83 01 	sts	0x0183, r23	; 0x800183 <cntModeErr+0x3>
	mStateBk = machineState;
    13dc:	20 91 d0 01 	lds	r18, 0x01D0	; 0x8001d0 <machineState>
    13e0:	20 93 af 01 	sts	0x01AF, r18	; 0x8001af <mStateBk>
	machineState = MODE_ERROR;
    13e4:	24 e0       	ldi	r18, 0x04	; 4
    13e6:	20 93 d0 01 	sts	0x01D0, r18	; 0x8001d0 <machineState>
	//codeNumberBk = codeNumber;
	//tmpCodeDataBk = tmpCodeData;
	
	fndData[3] = fndTableChar['E' - 'A'];
    13ea:	e9 ea       	ldi	r30, 0xA9	; 169
    13ec:	f1 e0       	ldi	r31, 0x01	; 1
    13ee:	20 91 12 01 	lds	r18, 0x0112	; 0x800112 <fndTableChar+0x4>
    13f2:	23 83       	std	Z+3, r18	; 0x03
	fndData[2] = 0x40;
    13f4:	20 e4       	ldi	r18, 0x40	; 64
    13f6:	22 83       	std	Z+2, r18	; 0x02
	fndData[1] = fndTableNum[0];
    13f8:	20 91 04 01 	lds	r18, 0x0104	; 0x800104 <fndTableNum>
    13fc:	21 83       	std	Z+1, r18	; 0x01
	fndData[0] = fndTableNum[errNo];
    13fe:	8c 5f       	subi	r24, 0xFC	; 252
    1400:	9e 4f       	sbci	r25, 0xFE	; 254
    1402:	dc 01       	movw	r26, r24
    1404:	8c 91       	ld	r24, X
    1406:	80 83       	st	Z, r24
	blinkCmdFlag = 0x0f;			//
    1408:	8f e0       	ldi	r24, 0x0F	; 15
    140a:	80 93 c9 01 	sts	0x01C9, r24	; 0x8001c9 <blinkCmdFlag>
    140e:	08 95       	ret

00001410 <modePassWord>:
		blinkCmdFlag = 0x08;
		editDigitPoint = 3;		// 1000
		return 0;
	}
*/	
	if( cmd == BTN_ENTER ){
    1410:	8f 37       	cpi	r24, 0x7F	; 127
    1412:	99 f5       	brne	.+102    	; 0x147a <modePassWord+0x6a>
		passwd = passWord[3] * 1000 +passWord[2] * 100 + passWord[1] * 10 + passWord[0]; 	
    1414:	ed e9       	ldi	r30, 0x9D	; 157
    1416:	f1 e0       	ldi	r31, 0x01	; 1
		if( passwd == 5737 ){
    1418:	43 81       	ldd	r20, Z+3	; 0x03
    141a:	28 ee       	ldi	r18, 0xE8	; 232
    141c:	33 e0       	ldi	r19, 0x03	; 3
    141e:	42 9f       	mul	r20, r18
    1420:	c0 01       	movw	r24, r0
    1422:	43 9f       	mul	r20, r19
    1424:	90 0d       	add	r25, r0
    1426:	11 24       	eor	r1, r1
    1428:	22 81       	ldd	r18, Z+2	; 0x02
    142a:	ac 01       	movw	r20, r24
    142c:	34 e6       	ldi	r19, 0x64	; 100
    142e:	23 9f       	mul	r18, r19
    1430:	40 0d       	add	r20, r0
    1432:	51 1d       	adc	r21, r1
    1434:	11 24       	eor	r1, r1
    1436:	91 81       	ldd	r25, Z+1	; 0x01
    1438:	89 2f       	mov	r24, r25
    143a:	90 e0       	ldi	r25, 0x00	; 0
    143c:	bc 01       	movw	r22, r24
    143e:	66 0f       	add	r22, r22
    1440:	77 1f       	adc	r23, r23
    1442:	9c 01       	movw	r18, r24
    1444:	22 0f       	add	r18, r18
    1446:	33 1f       	adc	r19, r19
    1448:	22 0f       	add	r18, r18
    144a:	33 1f       	adc	r19, r19
    144c:	22 0f       	add	r18, r18
    144e:	33 1f       	adc	r19, r19
    1450:	cb 01       	movw	r24, r22
    1452:	82 0f       	add	r24, r18
    1454:	93 1f       	adc	r25, r19
    1456:	84 0f       	add	r24, r20
    1458:	95 1f       	adc	r25, r21
    145a:	20 81       	ld	r18, Z
    145c:	82 0f       	add	r24, r18
    145e:	91 1d       	adc	r25, r1
    1460:	89 36       	cpi	r24, 0x69	; 105
    1462:	96 41       	sbci	r25, 0x16	; 22
    1464:	11 f4       	brne	.+4      	; 0x146a <modePassWord+0x5a>
			enterModeSelectCode();
    1466:	0f de       	rcall	.-994    	; 0x1086 <enterModeSelectCode>
			return 0;
    1468:	49 c0       	rjmp	.+146    	; 0x14fc <modePassWord+0xec>
		} else {
			tripNumber = 5;
    146a:	85 e0       	ldi	r24, 0x05	; 5
    146c:	90 e0       	ldi	r25, 0x00	; 0
    146e:	90 93 a8 01 	sts	0x01A8, r25	; 0x8001a8 <tripNumber+0x1>
    1472:	80 93 a7 01 	sts	0x01A7, r24	; 0x8001a7 <tripNumber>
			enterModeError(tripNumber);
    1476:	a2 df       	rcall	.-188    	; 0x13bc <enterModeError>
			
			// displayErr(ERR_PASS_WORD);
			// retryPassWord = 1;
			return 0;
    1478:	41 c0       	rjmp	.+130    	; 0x14fc <modePassWord+0xec>
		}
		return 0;
	}

	if(cmd == BTN_CANCEL){
    147a:	8f 3b       	cpi	r24, 0xBF	; 191
		enterModeRun();
    147c:	11 f4       	brne	.+4      	; 0x1482 <modePassWord+0x72>
    147e:	dc dd       	rcall	.-1096   	; 0x1038 <enterModeRun>
		return 0;
    1480:	3d c0       	rjmp	.+122    	; 0x14fc <modePassWord+0xec>
	}
	
	if(cmd == BTN_UP){
    1482:	8f 3e       	cpi	r24, 0xEF	; 239
    1484:	c9 f4       	brne	.+50     	; 0x14b8 <modePassWord+0xa8>
		passWord[editDigitPoint] = ( passWord[editDigitPoint] > 8 ) ? 0 : passWord[editDigitPoint] +1;
    1486:	80 91 c4 01 	lds	r24, 0x01C4	; 0x8001c4 <editDigitPoint>
    148a:	90 e0       	ldi	r25, 0x00	; 0
    148c:	fc 01       	movw	r30, r24
    148e:	e3 56       	subi	r30, 0x63	; 99
    1490:	fe 4f       	sbci	r31, 0xFE	; 254
    1492:	e0 81       	ld	r30, Z
    1494:	e9 30       	cpi	r30, 0x09	; 9
    1496:	10 f4       	brcc	.+4      	; 0x149c <modePassWord+0x8c>
    1498:	ef 5f       	subi	r30, 0xFF	; 255
    149a:	01 c0       	rjmp	.+2      	; 0x149e <modePassWord+0x8e>
    149c:	e0 e0       	ldi	r30, 0x00	; 0
    149e:	dc 01       	movw	r26, r24
    14a0:	a3 56       	subi	r26, 0x63	; 99
    14a2:	be 4f       	sbci	r27, 0xFE	; 254
    14a4:	ec 93       	st	X, r30
		i = passWord[editDigitPoint];
		fndData[editDigitPoint] = fndTableNum[i];
    14a6:	dc 01       	movw	r26, r24
    14a8:	a7 55       	subi	r26, 0x57	; 87
    14aa:	be 4f       	sbci	r27, 0xFE	; 254
    14ac:	f0 e0       	ldi	r31, 0x00	; 0
    14ae:	ec 5f       	subi	r30, 0xFC	; 252
    14b0:	fe 4f       	sbci	r31, 0xFE	; 254
    14b2:	20 81       	ld	r18, Z
    14b4:	2c 93       	st	X, r18
		return 0;
    14b6:	22 c0       	rjmp	.+68     	; 0x14fc <modePassWord+0xec>
	}

	if(cmd == BTN_LEFT){
    14b8:	8f 3d       	cpi	r24, 0xDF	; 223
    14ba:	01 f5       	brne	.+64     	; 0x14fc <modePassWord+0xec>
		editDigitPoint = ( editDigitPoint <= 0 ) ? 3 : editDigitPoint - 1;
    14bc:	80 91 c4 01 	lds	r24, 0x01C4	; 0x8001c4 <editDigitPoint>
    14c0:	88 23       	and	r24, r24
    14c2:	11 f0       	breq	.+4      	; 0x14c8 <modePassWord+0xb8>
    14c4:	81 50       	subi	r24, 0x01	; 1
    14c6:	01 c0       	rjmp	.+2      	; 0x14ca <modePassWord+0xba>
    14c8:	83 e0       	ldi	r24, 0x03	; 3
    14ca:	80 93 c4 01 	sts	0x01C4, r24	; 0x8001c4 <editDigitPoint>
		blinkCmdFlag = blinkCmdFlag >> 1 ;
    14ce:	90 91 c9 01 	lds	r25, 0x01C9	; 0x8001c9 <blinkCmdFlag>
    14d2:	96 95       	lsr	r25
		if( blinkCmdFlag == 0 ) blinkCmdFlag = 0x08;
    14d4:	19 f0       	breq	.+6      	; 0x14dc <modePassWord+0xcc>
		return 0;
	}

	if(cmd == BTN_LEFT){
		editDigitPoint = ( editDigitPoint <= 0 ) ? 3 : editDigitPoint - 1;
		blinkCmdFlag = blinkCmdFlag >> 1 ;
    14d6:	90 93 c9 01 	sts	0x01C9, r25	; 0x8001c9 <blinkCmdFlag>
    14da:	03 c0       	rjmp	.+6      	; 0x14e2 <modePassWord+0xd2>
		if( blinkCmdFlag == 0 ) blinkCmdFlag = 0x08;
    14dc:	98 e0       	ldi	r25, 0x08	; 8
    14de:	90 93 c9 01 	sts	0x01C9, r25	; 0x8001c9 <blinkCmdFlag>
		
		i = passWord[editDigitPoint];
    14e2:	90 e0       	ldi	r25, 0x00	; 0
		fndData[editDigitPoint] = fndTableNum[i];
    14e4:	dc 01       	movw	r26, r24
    14e6:	a7 55       	subi	r26, 0x57	; 87
    14e8:	be 4f       	sbci	r27, 0xFE	; 254
	if(cmd == BTN_LEFT){
		editDigitPoint = ( editDigitPoint <= 0 ) ? 3 : editDigitPoint - 1;
		blinkCmdFlag = blinkCmdFlag >> 1 ;
		if( blinkCmdFlag == 0 ) blinkCmdFlag = 0x08;
		
		i = passWord[editDigitPoint];
    14ea:	fc 01       	movw	r30, r24
    14ec:	e3 56       	subi	r30, 0x63	; 99
    14ee:	fe 4f       	sbci	r31, 0xFE	; 254
		fndData[editDigitPoint] = fndTableNum[i];
    14f0:	e0 81       	ld	r30, Z
    14f2:	f0 e0       	ldi	r31, 0x00	; 0
    14f4:	ec 5f       	subi	r30, 0xFC	; 252
    14f6:	fe 4f       	sbci	r31, 0xFE	; 254
    14f8:	80 81       	ld	r24, Z
    14fa:	8c 93       	st	X, r24
		return 0;
	}
	return 0;
}
    14fc:	80 e0       	ldi	r24, 0x00	; 0
    14fe:	90 e0       	ldi	r25, 0x00	; 0
    1500:	08 95       	ret

00001502 <modeChangeCode>:

int modeChangeCode(uint8_t cmd)
{
	int16_t tmp;
	
	if(cmd == BTN_ENTER){
    1502:	8f 37       	cpi	r24, 0x7F	; 127
    1504:	09 f0       	breq	.+2      	; 0x1508 <modeChangeCode+0x6>
    1506:	5b c0       	rjmp	.+182    	; 0x15be <modeChangeCode+0xbc>
		if( codeNumber == CODE_SETT ) {
    1508:	80 91 98 01 	lds	r24, 0x0198	; 0x800198 <codeNumber>
    150c:	90 91 99 01 	lds	r25, 0x0199	; 0x800199 <codeNumber+0x1>
    1510:	86 30       	cpi	r24, 0x06	; 6
    1512:	91 05       	cpc	r25, r1
    1514:	09 f0       	breq	.+2      	; 0x1518 <modeChangeCode+0x16>
    1516:	3d c0       	rjmp	.+122    	; 0x1592 <modeChangeCode+0x90>
			tmp = adcWeightIn - codeAdcZero;
    1518:	80 91 b0 01 	lds	r24, 0x01B0	; 0x8001b0 <adcWeightIn>
    151c:	90 91 b1 01 	lds	r25, 0x01B1	; 0x8001b1 <adcWeightIn+0x1>
    1520:	20 91 96 01 	lds	r18, 0x0196	; 0x800196 <codeAdcZero>
    1524:	30 91 97 01 	lds	r19, 0x0197	; 0x800197 <codeAdcZero+0x1>
    1528:	82 1b       	sub	r24, r18
    152a:	93 0b       	sbc	r25, r19
			if(tmp < 0 ) tmp = - tmp;
			if( tmp < 20 ){
    152c:	9c 01       	movw	r18, r24
    152e:	22 f4       	brpl	.+8      	; 0x1538 <modeChangeCode+0x36>
    1530:	22 27       	eor	r18, r18
    1532:	33 27       	eor	r19, r19
    1534:	28 1b       	sub	r18, r24
    1536:	39 0b       	sbc	r19, r25
    1538:	24 31       	cpi	r18, 0x14	; 20
    153a:	31 05       	cpc	r19, r1
    153c:	44 f4       	brge	.+16     	; 0x154e <modeChangeCode+0x4c>
				tripNumber = 1;
    153e:	81 e0       	ldi	r24, 0x01	; 1
    1540:	90 e0       	ldi	r25, 0x00	; 0
    1542:	90 93 a8 01 	sts	0x01A8, r25	; 0x8001a8 <tripNumber+0x1>
    1546:	80 93 a7 01 	sts	0x01A7, r24	; 0x8001a7 <tripNumber>
				enterModeError(tripNumber);
    154a:	38 df       	rcall	.-400    	; 0x13bc <enterModeError>
    154c:	bf c1       	rjmp	.+894    	; 0x18cc <modeChangeCode+0x3ca>
			} else if ( adcWeightIn > 1000 ){
    154e:	80 91 b0 01 	lds	r24, 0x01B0	; 0x8001b0 <adcWeightIn>
    1552:	90 91 b1 01 	lds	r25, 0x01B1	; 0x8001b1 <adcWeightIn+0x1>
    1556:	89 3e       	cpi	r24, 0xE9	; 233
    1558:	93 40       	sbci	r25, 0x03	; 3
    155a:	44 f0       	brlt	.+16     	; 0x156c <modeChangeCode+0x6a>
				tripNumber = 2;
    155c:	82 e0       	ldi	r24, 0x02	; 2
    155e:	90 e0       	ldi	r25, 0x00	; 0
    1560:	90 93 a8 01 	sts	0x01A8, r25	; 0x8001a8 <tripNumber+0x1>
    1564:	80 93 a7 01 	sts	0x01A7, r24	; 0x8001a7 <tripNumber>
				enterModeError(tripNumber);				
    1568:	29 df       	rcall	.-430    	; 0x13bc <enterModeError>
    156a:	b0 c1       	rjmp	.+864    	; 0x18cc <modeChangeCode+0x3ca>
			} else {
				saveCode(CODE_SETT,tmpCodeData);
    156c:	60 91 90 01 	lds	r22, 0x0190	; 0x800190 <tmpCodeData>
    1570:	70 91 91 01 	lds	r23, 0x0191	; 0x800191 <tmpCodeData+0x1>
    1574:	86 e0       	ldi	r24, 0x06	; 6
    1576:	90 e0       	ldi	r25, 0x00	; 0
    1578:	0e 94 ed 00 	call	0x1da	; 0x1da <saveCode>
				saveCode(CODE_SPAN_ADC,adcWeightIn);
    157c:	60 91 b0 01 	lds	r22, 0x01B0	; 0x8001b0 <adcWeightIn>
    1580:	70 91 b1 01 	lds	r23, 0x01B1	; 0x8001b1 <adcWeightIn+0x1>
    1584:	88 e0       	ldi	r24, 0x08	; 8
    1586:	90 e0       	ldi	r25, 0x00	; 0
    1588:	0e 94 ed 00 	call	0x1da	; 0x1da <saveCode>
				calcWeightCoeff();
    158c:	51 db       	rcall	.-2398   	; 0xc30 <calcWeightCoeff>
				enterModeRun();
    158e:	54 dd       	rcall	.-1368   	; 0x1038 <enterModeRun>
    1590:	9d c1       	rjmp	.+826    	; 0x18cc <modeChangeCode+0x3ca>
    1592:	83 30       	cpi	r24, 0x03	; 3
			}
			return 0;
		} else if(codeNumber == CODE_AUTO){
    1594:	91 05       	cpc	r25, r1
    1596:	59 f4       	brne	.+22     	; 0x15ae <modeChangeCode+0xac>
    1598:	60 91 b0 01 	lds	r22, 0x01B0	; 0x8001b0 <adcWeightIn>
				saveCode(CODE_ZERO_ADC,adcWeightIn);
				calcWeightOffset();
				enterModeRun();
			}
*/
				saveCode(CODE_ZERO_ADC,adcWeightIn);
    159c:	70 91 b1 01 	lds	r23, 0x01B1	; 0x8001b1 <adcWeightIn+0x1>
    15a0:	89 e0       	ldi	r24, 0x09	; 9
    15a2:	90 e0       	ldi	r25, 0x00	; 0
    15a4:	0e 94 ed 00 	call	0x1da	; 0x1da <saveCode>
				calcWeightOffset();
    15a8:	83 db       	rcall	.-2298   	; 0xcb0 <calcWeightOffset>
				enterModeRun();						
    15aa:	46 dd       	rcall	.-1396   	; 0x1038 <enterModeRun>
    15ac:	8f c1       	rjmp	.+798    	; 0x18cc <modeChangeCode+0x3ca>
    15ae:	60 91 90 01 	lds	r22, 0x0190	; 0x800190 <tmpCodeData>
		} else {
			saveCode(codeNumber,tmpCodeData);
    15b2:	70 91 91 01 	lds	r23, 0x0191	; 0x800191 <tmpCodeData+0x1>
    15b6:	0e 94 ed 00 	call	0x1da	; 0x1da <saveCode>
			enterModeRun();
    15ba:	3e dd       	rcall	.-1412   	; 0x1038 <enterModeRun>
    15bc:	87 c1       	rjmp	.+782    	; 0x18cc <modeChangeCode+0x3ca>
		}
		return 0;
	}
	
	if(cmd == BTN_CANCEL){
    15be:	8f 3b       	cpi	r24, 0xBF	; 191
    15c0:	11 f4       	brne	.+4      	; 0x15c6 <modeChangeCode+0xc4>
		enterModeRun();
    15c2:	3a dd       	rcall	.-1420   	; 0x1038 <enterModeRun>
    15c4:	83 c1       	rjmp	.+774    	; 0x18cc <modeChangeCode+0x3ca>
		return 0;
    15c6:	20 91 98 01 	lds	r18, 0x0198	; 0x800198 <codeNumber>
	}

	if(codeNumber == CODE_ADC )	{
    15ca:	30 91 99 01 	lds	r19, 0x0199	; 0x800199 <codeNumber+0x1>
    15ce:	27 30       	cpi	r18, 0x07	; 7
    15d0:	31 05       	cpc	r19, r1
    15d2:	31 f4       	brne	.+12     	; 0x15e0 <modeChangeCode+0xde>
		displayNumber(adcWeightIn);
    15d4:	80 91 b0 01 	lds	r24, 0x01B0	; 0x8001b0 <adcWeightIn>
    15d8:	90 91 b1 01 	lds	r25, 0x01B1	; 0x8001b1 <adcWeightIn+0x1>
    15dc:	82 da       	rcall	.-2812   	; 0xae2 <displayNumber>
    15de:	76 c1       	rjmp	.+748    	; 0x18cc <modeChangeCode+0x3ca>
		return 0;
    15e0:	8f 3e       	cpi	r24, 0xEF	; 239
	}

	if(cmd == BTN_UP){
    15e2:	09 f0       	breq	.+2      	; 0x15e6 <modeChangeCode+0xe4>
    15e4:	fa c0       	rjmp	.+500    	; 0x17da <modeChangeCode+0x2d8>
    15e6:	22 30       	cpi	r18, 0x02	; 2
		switch(codeNumber){
    15e8:	31 05       	cpc	r19, r1
    15ea:	09 f4       	brne	.+2      	; 0x15ee <modeChangeCode+0xec>
    15ec:	58 c0       	rjmp	.+176    	; 0x169e <modeChangeCode+0x19c>
    15ee:	44 f4       	brge	.+16     	; 0x1600 <modeChangeCode+0xfe>
    15f0:	21 15       	cp	r18, r1
    15f2:	31 05       	cpc	r19, r1
    15f4:	71 f0       	breq	.+28     	; 0x1612 <modeChangeCode+0x110>
    15f6:	21 30       	cpi	r18, 0x01	; 1
    15f8:	31 05       	cpc	r19, r1
    15fa:	09 f4       	brne	.+2      	; 0x15fe <modeChangeCode+0xfc>
    15fc:	3f c0       	rjmp	.+126    	; 0x167c <modeChangeCode+0x17a>
    15fe:	ed c0       	rjmp	.+474    	; 0x17da <modeChangeCode+0x2d8>
    1600:	23 30       	cpi	r18, 0x03	; 3
    1602:	31 05       	cpc	r19, r1
    1604:	09 f4       	brne	.+2      	; 0x1608 <modeChangeCode+0x106>
    1606:	82 c0       	rjmp	.+260    	; 0x170c <modeChangeCode+0x20a>
    1608:	27 30       	cpi	r18, 0x07	; 7
    160a:	31 05       	cpc	r19, r1
    160c:	0c f4       	brge	.+2      	; 0x1610 <modeChangeCode+0x10e>
    160e:	ad c0       	rjmp	.+346    	; 0x176a <modeChangeCode+0x268>
    1610:	e4 c0       	rjmp	.+456    	; 0x17da <modeChangeCode+0x2d8>
    1612:	80 91 90 01 	lds	r24, 0x0190	; 0x800190 <tmpCodeData>
		case CODE_POINT:
			tmpCodeData = ( tmpCodeData > 1 ) ? 0 : tmpCodeData + 1;
    1616:	90 91 91 01 	lds	r25, 0x0191	; 0x800191 <tmpCodeData+0x1>
    161a:	82 30       	cpi	r24, 0x02	; 2
    161c:	91 05       	cpc	r25, r1
    161e:	0c f0       	brlt	.+2      	; 0x1622 <modeChangeCode+0x120>
    1620:	45 c1       	rjmp	.+650    	; 0x18ac <modeChangeCode+0x3aa>
    1622:	01 96       	adiw	r24, 0x01	; 1
    1624:	90 93 91 01 	sts	0x0191, r25	; 0x800191 <tmpCodeData+0x1>
    1628:	80 93 90 01 	sts	0x0190, r24	; 0x800190 <tmpCodeData>
    162c:	00 97       	sbiw	r24, 0x00	; 0
			if(tmpCodeData == 0) blinkCmdFlag = 1;
    162e:	21 f4       	brne	.+8      	; 0x1638 <modeChangeCode+0x136>
    1630:	81 e0       	ldi	r24, 0x01	; 1
    1632:	80 93 c9 01 	sts	0x01C9, r24	; 0x8001c9 <blinkCmdFlag>
    1636:	14 c0       	rjmp	.+40     	; 0x1660 <modeChangeCode+0x15e>
    1638:	81 30       	cpi	r24, 0x01	; 1
			else if(tmpCodeData == 1) blinkCmdFlag = 2;
    163a:	91 05       	cpc	r25, r1
    163c:	21 f4       	brne	.+8      	; 0x1646 <modeChangeCode+0x144>
    163e:	82 e0       	ldi	r24, 0x02	; 2
    1640:	80 93 c9 01 	sts	0x01C9, r24	; 0x8001c9 <blinkCmdFlag>
    1644:	0d c0       	rjmp	.+26     	; 0x1660 <modeChangeCode+0x15e>
    1646:	02 97       	sbiw	r24, 0x02	; 2
			else if(tmpCodeData == 2) blinkCmdFlag = 4;
    1648:	21 f4       	brne	.+8      	; 0x1652 <modeChangeCode+0x150>
    164a:	84 e0       	ldi	r24, 0x04	; 4
    164c:	80 93 c9 01 	sts	0x01C9, r24	; 0x8001c9 <blinkCmdFlag>
    1650:	07 c0       	rjmp	.+14     	; 0x1660 <modeChangeCode+0x15e>
    1652:	10 92 91 01 	sts	0x0191, r1	; 0x800191 <tmpCodeData+0x1>
			else {
				tmpCodeData = 0;
    1656:	10 92 90 01 	sts	0x0190, r1	; 0x800190 <tmpCodeData>
    165a:	81 e0       	ldi	r24, 0x01	; 1
				blinkCmdFlag = 1;
    165c:	80 93 c9 01 	sts	0x01C9, r24	; 0x8001c9 <blinkCmdFlag>
    1660:	80 91 90 01 	lds	r24, 0x0190	; 0x800190 <tmpCodeData>
			}
			codePoint = tmpCodeData;
    1664:	90 91 91 01 	lds	r25, 0x0191	; 0x800191 <tmpCodeData+0x1>
    1668:	90 93 93 01 	sts	0x0193, r25	; 0x800193 <codePoint+0x1>
    166c:	80 93 92 01 	sts	0x0192, r24	; 0x800192 <codePoint>
			displayWeight1(loadWeight);
    1670:	80 91 ce 01 	lds	r24, 0x01CE	; 0x8001ce <loadWeight>
    1674:	90 91 cf 01 	lds	r25, 0x01CF	; 0x8001cf <loadWeight+0x1>
    1678:	c8 d8       	rcall	.-3696   	; 0x80a <displayWeight1>
    167a:	28 c1       	rjmp	.+592    	; 0x18cc <modeChangeCode+0x3ca>
			//displayNumber(loadWeight);
			break;
    167c:	80 91 90 01 	lds	r24, 0x0190	; 0x800190 <tmpCodeData>
		case CODE_FILT:
			tmpCodeData = ( tmpCodeData > 8 ) ? 0 : tmpCodeData + 1;
    1680:	90 91 91 01 	lds	r25, 0x0191	; 0x800191 <tmpCodeData+0x1>
    1684:	89 30       	cpi	r24, 0x09	; 9
    1686:	91 05       	cpc	r25, r1
    1688:	14 f4       	brge	.+4      	; 0x168e <modeChangeCode+0x18c>
    168a:	01 96       	adiw	r24, 0x01	; 1
    168c:	02 c0       	rjmp	.+4      	; 0x1692 <modeChangeCode+0x190>
    168e:	80 e0       	ldi	r24, 0x00	; 0
    1690:	90 e0       	ldi	r25, 0x00	; 0
    1692:	90 93 91 01 	sts	0x0191, r25	; 0x800191 <tmpCodeData+0x1>
    1696:	80 93 90 01 	sts	0x0190, r24	; 0x800190 <tmpCodeData>
			//displayWeight(tmpCodeData);
			displayNumber1(tmpCodeData);
    169a:	6f d9       	rcall	.-3362   	; 0x97a <displayNumber1>
    169c:	17 c1       	rjmp	.+558    	; 0x18cc <modeChangeCode+0x3ca>
			break;
    169e:	80 91 90 01 	lds	r24, 0x0190	; 0x800190 <tmpCodeData>
		case CODE_DIVISION:
			switch(tmpCodeData){
    16a2:	90 91 91 01 	lds	r25, 0x0191	; 0x800191 <tmpCodeData+0x1>
    16a6:	81 30       	cpi	r24, 0x01	; 1
    16a8:	91 05       	cpc	r25, r1
    16aa:	89 f0       	breq	.+34     	; 0x16ce <modeChangeCode+0x1cc>
    16ac:	1c f4       	brge	.+6      	; 0x16b4 <modeChangeCode+0x1b2>
    16ae:	89 2b       	or	r24, r25
    16b0:	39 f0       	breq	.+14     	; 0x16c0 <modeChangeCode+0x1be>
    16b2:	20 c0       	rjmp	.+64     	; 0x16f4 <modeChangeCode+0x1f2>
    16b4:	82 30       	cpi	r24, 0x02	; 2
    16b6:	91 05       	cpc	r25, r1
    16b8:	89 f0       	breq	.+34     	; 0x16dc <modeChangeCode+0x1da>
    16ba:	05 97       	sbiw	r24, 0x05	; 5
    16bc:	b1 f0       	breq	.+44     	; 0x16ea <modeChangeCode+0x1e8>
    16be:	1a c0       	rjmp	.+52     	; 0x16f4 <modeChangeCode+0x1f2>
    16c0:	81 e0       	ldi	r24, 0x01	; 1
				case 0: tmpCodeData = 1; break;
    16c2:	90 e0       	ldi	r25, 0x00	; 0
    16c4:	90 93 91 01 	sts	0x0191, r25	; 0x800191 <tmpCodeData+0x1>
    16c8:	80 93 90 01 	sts	0x0190, r24	; 0x800190 <tmpCodeData>
    16cc:	19 c0       	rjmp	.+50     	; 0x1700 <modeChangeCode+0x1fe>
    16ce:	82 e0       	ldi	r24, 0x02	; 2
				case 1: tmpCodeData = 2; break;
    16d0:	90 e0       	ldi	r25, 0x00	; 0
    16d2:	90 93 91 01 	sts	0x0191, r25	; 0x800191 <tmpCodeData+0x1>
    16d6:	80 93 90 01 	sts	0x0190, r24	; 0x800190 <tmpCodeData>
    16da:	12 c0       	rjmp	.+36     	; 0x1700 <modeChangeCode+0x1fe>
    16dc:	85 e0       	ldi	r24, 0x05	; 5
				case 2: tmpCodeData = 5; break;
    16de:	90 e0       	ldi	r25, 0x00	; 0
    16e0:	90 93 91 01 	sts	0x0191, r25	; 0x800191 <tmpCodeData+0x1>
    16e4:	80 93 90 01 	sts	0x0190, r24	; 0x800190 <tmpCodeData>
    16e8:	0b c0       	rjmp	.+22     	; 0x1700 <modeChangeCode+0x1fe>
    16ea:	10 92 91 01 	sts	0x0191, r1	; 0x800191 <tmpCodeData+0x1>
				case 5: tmpCodeData = 0; break;
    16ee:	10 92 90 01 	sts	0x0190, r1	; 0x800190 <tmpCodeData>
    16f2:	06 c0       	rjmp	.+12     	; 0x1700 <modeChangeCode+0x1fe>
				default: tmpCodeData = 1; break;
    16f4:	81 e0       	ldi	r24, 0x01	; 1
    16f6:	90 e0       	ldi	r25, 0x00	; 0
    16f8:	90 93 91 01 	sts	0x0191, r25	; 0x800191 <tmpCodeData+0x1>
    16fc:	80 93 90 01 	sts	0x0190, r24	; 0x800190 <tmpCodeData>
			}
			displayNumber1(tmpCodeData);
    1700:	80 91 90 01 	lds	r24, 0x0190	; 0x800190 <tmpCodeData>
    1704:	90 91 91 01 	lds	r25, 0x0191	; 0x800191 <tmpCodeData+0x1>
    1708:	38 d9       	rcall	.-3472   	; 0x97a <displayNumber1>
    170a:	e0 c0       	rjmp	.+448    	; 0x18cc <modeChangeCode+0x3ca>
			break;
    170c:	80 91 90 01 	lds	r24, 0x0190	; 0x800190 <tmpCodeData>
		case CODE_AUTO:
			if(tmpCodeData){
    1710:	90 91 91 01 	lds	r25, 0x0191	; 0x800191 <tmpCodeData+0x1>
    1714:	89 2b       	or	r24, r25
    1716:	91 f0       	breq	.+36     	; 0x173c <modeChangeCode+0x23a>
    1718:	10 92 91 01 	sts	0x0191, r1	; 0x800191 <tmpCodeData+0x1>
				tmpCodeData = 0;
    171c:	10 92 90 01 	sts	0x0190, r1	; 0x800190 <tmpCodeData>
    1720:	e9 ea       	ldi	r30, 0xA9	; 169
				fndData[3] = 0x00;
    1722:	f1 e0       	ldi	r31, 0x01	; 1
    1724:	13 82       	std	Z+3, r1	; 0x03
    1726:	ae e0       	ldi	r26, 0x0E	; 14
				fndData[2] = fndTableChar['N' - 'A'];
    1728:	b1 e0       	ldi	r27, 0x01	; 1
    172a:	1d 96       	adiw	r26, 0x0d	; 13
    172c:	8c 91       	ld	r24, X
    172e:	1d 97       	sbiw	r26, 0x0d	; 13
    1730:	82 83       	std	Z+2, r24	; 0x02
    1732:	1e 96       	adiw	r26, 0x0e	; 14
				fndData[1] = fndTableChar['O' - 'A'];
    1734:	8c 91       	ld	r24, X
    1736:	81 83       	std	Z+1, r24	; 0x01
    1738:	10 82       	st	Z, r1
				fndData[0] = 0x00;
    173a:	c8 c0       	rjmp	.+400    	; 0x18cc <modeChangeCode+0x3ca>
    173c:	81 e0       	ldi	r24, 0x01	; 1
			} else {
				tmpCodeData = 1;
    173e:	90 e0       	ldi	r25, 0x00	; 0
    1740:	90 93 91 01 	sts	0x0191, r25	; 0x800191 <tmpCodeData+0x1>
    1744:	80 93 90 01 	sts	0x0190, r24	; 0x800190 <tmpCodeData>
    1748:	e9 ea       	ldi	r30, 0xA9	; 169
				fndData[3] = 0x00;
    174a:	f1 e0       	ldi	r31, 0x01	; 1
    174c:	13 82       	std	Z+3, r1	; 0x03
    174e:	ae e0       	ldi	r26, 0x0E	; 14
				fndData[2] = fndTableChar['Y' - 'A'];
    1750:	b1 e0       	ldi	r27, 0x01	; 1
    1752:	58 96       	adiw	r26, 0x18	; 24
    1754:	8c 91       	ld	r24, X
    1756:	58 97       	sbiw	r26, 0x18	; 24
    1758:	82 83       	std	Z+2, r24	; 0x02
    175a:	14 96       	adiw	r26, 0x04	; 4
				fndData[1] = fndTableChar['E' - 'A'];
    175c:	8c 91       	ld	r24, X
    175e:	14 97       	sbiw	r26, 0x04	; 4
    1760:	81 83       	std	Z+1, r24	; 0x01
    1762:	52 96       	adiw	r26, 0x12	; 18
				fndData[0] = fndTableChar['S' - 'A'];
    1764:	8c 91       	ld	r24, X
    1766:	80 83       	st	Z, r24
    1768:	b1 c0       	rjmp	.+354    	; 0x18cc <modeChangeCode+0x3ca>
    176a:	80 91 c4 01 	lds	r24, 0x01C4	; 0x8001c4 <editDigitPoint>
			}
			break;
		case CODE_ALARM:
		case CODE_OVER:
		case CODE_SETT:
			tmpFndData[editDigitPoint] = ( tmpFndData[editDigitPoint] > 8 ) ? 0 : tmpFndData[editDigitPoint] +1;
    176e:	90 e0       	ldi	r25, 0x00	; 0
    1770:	fc 01       	movw	r30, r24
    1772:	e6 54       	subi	r30, 0x46	; 70
    1774:	fe 4f       	sbci	r31, 0xFE	; 254
    1776:	20 81       	ld	r18, Z
    1778:	29 30       	cpi	r18, 0x09	; 9
    177a:	10 f4       	brcc	.+4      	; 0x1780 <modeChangeCode+0x27e>
    177c:	2f 5f       	subi	r18, 0xFF	; 255
    177e:	01 c0       	rjmp	.+2      	; 0x1782 <modeChangeCode+0x280>
    1780:	20 e0       	ldi	r18, 0x00	; 0
    1782:	ea eb       	ldi	r30, 0xBA	; 186
    1784:	f1 e0       	ldi	r31, 0x01	; 1
    1786:	dc 01       	movw	r26, r24
    1788:	a6 54       	subi	r26, 0x46	; 70
    178a:	be 4f       	sbci	r27, 0xFE	; 254
    178c:	2c 93       	st	X, r18
    178e:	43 81       	ldd	r20, Z+3	; 0x03
			tmpCodeData = tmpFndData[3] * 1000 +tmpFndData[2]*100 + tmpFndData[1] * 10 + tmpFndData[0];
    1790:	28 ee       	ldi	r18, 0xE8	; 232
    1792:	33 e0       	ldi	r19, 0x03	; 3
    1794:	42 9f       	mul	r20, r18
    1796:	c0 01       	movw	r24, r0
    1798:	43 9f       	mul	r20, r19
    179a:	90 0d       	add	r25, r0
    179c:	11 24       	eor	r1, r1
    179e:	22 81       	ldd	r18, Z+2	; 0x02
    17a0:	34 e6       	ldi	r19, 0x64	; 100
    17a2:	23 9f       	mul	r18, r19
    17a4:	80 0d       	add	r24, r0
    17a6:	91 1d       	adc	r25, r1
    17a8:	11 24       	eor	r1, r1
    17aa:	21 81       	ldd	r18, Z+1	; 0x01
    17ac:	30 e0       	ldi	r19, 0x00	; 0
    17ae:	a9 01       	movw	r20, r18
    17b0:	44 0f       	add	r20, r20
    17b2:	55 1f       	adc	r21, r21
    17b4:	22 0f       	add	r18, r18
    17b6:	33 1f       	adc	r19, r19
    17b8:	22 0f       	add	r18, r18
    17ba:	33 1f       	adc	r19, r19
    17bc:	22 0f       	add	r18, r18
    17be:	33 1f       	adc	r19, r19
    17c0:	24 0f       	add	r18, r20
    17c2:	35 1f       	adc	r19, r21
    17c4:	82 0f       	add	r24, r18
    17c6:	93 1f       	adc	r25, r19
    17c8:	20 81       	ld	r18, Z
    17ca:	82 0f       	add	r24, r18
    17cc:	91 1d       	adc	r25, r1
    17ce:	90 93 91 01 	sts	0x0191, r25	; 0x800191 <tmpCodeData+0x1>
    17d2:	80 93 90 01 	sts	0x0190, r24	; 0x800190 <tmpCodeData>
			displayWeight1(tmpCodeData);
    17d6:	19 d8       	rcall	.-4046   	; 0x80a <displayWeight1>
    17d8:	79 c0       	rjmp	.+242    	; 0x18cc <modeChangeCode+0x3ca>
			//displayNumber(tmpCodeData);
			break;
    17da:	8f 3d       	cpi	r24, 0xDF	; 223
		}
	}

	if(cmd == BTN_LEFT){
    17dc:	09 f0       	breq	.+2      	; 0x17e0 <modeChangeCode+0x2de>
    17de:	76 c0       	rjmp	.+236    	; 0x18cc <modeChangeCode+0x3ca>
    17e0:	21 15       	cp	r18, r1
		switch(codeNumber){
    17e2:	31 05       	cpc	r19, r1
    17e4:	41 f0       	breq	.+16     	; 0x17f6 <modeChangeCode+0x2f4>
    17e6:	0c f4       	brge	.+2      	; 0x17ea <modeChangeCode+0x2e8>
    17e8:	71 c0       	rjmp	.+226    	; 0x18cc <modeChangeCode+0x3ca>
    17ea:	24 50       	subi	r18, 0x04	; 4
    17ec:	31 09       	sbc	r19, r1
    17ee:	23 30       	cpi	r18, 0x03	; 3
    17f0:	31 05       	cpc	r19, r1
    17f2:	b8 f1       	brcs	.+110    	; 0x1862 <modeChangeCode+0x360>
    17f4:	6b c0       	rjmp	.+214    	; 0x18cc <modeChangeCode+0x3ca>
    17f6:	80 91 90 01 	lds	r24, 0x0190	; 0x800190 <tmpCodeData>
		case 0:
			tmpCodeData = ( tmpCodeData < 1 ) ? 2 : tmpCodeData - 1;
    17fa:	90 91 91 01 	lds	r25, 0x0191	; 0x800191 <tmpCodeData+0x1>
    17fe:	18 16       	cp	r1, r24
    1800:	19 06       	cpc	r1, r25
    1802:	0c f0       	brlt	.+2      	; 0x1806 <modeChangeCode+0x304>
    1804:	58 c0       	rjmp	.+176    	; 0x18b6 <modeChangeCode+0x3b4>
    1806:	01 97       	sbiw	r24, 0x01	; 1
    1808:	90 93 91 01 	sts	0x0191, r25	; 0x800191 <tmpCodeData+0x1>
    180c:	80 93 90 01 	sts	0x0190, r24	; 0x800190 <tmpCodeData>
    1810:	00 97       	sbiw	r24, 0x00	; 0
			if(tmpCodeData == 0) blinkCmdFlag = 1;
    1812:	21 f4       	brne	.+8      	; 0x181c <modeChangeCode+0x31a>
    1814:	81 e0       	ldi	r24, 0x01	; 1
    1816:	80 93 c9 01 	sts	0x01C9, r24	; 0x8001c9 <blinkCmdFlag>
    181a:	14 c0       	rjmp	.+40     	; 0x1844 <modeChangeCode+0x342>
    181c:	81 30       	cpi	r24, 0x01	; 1
			else if(tmpCodeData == 1) blinkCmdFlag = 2;
    181e:	91 05       	cpc	r25, r1
    1820:	21 f4       	brne	.+8      	; 0x182a <modeChangeCode+0x328>
    1822:	82 e0       	ldi	r24, 0x02	; 2
    1824:	80 93 c9 01 	sts	0x01C9, r24	; 0x8001c9 <blinkCmdFlag>
    1828:	0d c0       	rjmp	.+26     	; 0x1844 <modeChangeCode+0x342>
    182a:	02 97       	sbiw	r24, 0x02	; 2
			else if(tmpCodeData == 2) blinkCmdFlag = 4;
    182c:	21 f4       	brne	.+8      	; 0x1836 <modeChangeCode+0x334>
    182e:	84 e0       	ldi	r24, 0x04	; 4
    1830:	80 93 c9 01 	sts	0x01C9, r24	; 0x8001c9 <blinkCmdFlag>
    1834:	07 c0       	rjmp	.+14     	; 0x1844 <modeChangeCode+0x342>
    1836:	10 92 91 01 	sts	0x0191, r1	; 0x800191 <tmpCodeData+0x1>
			else {
				tmpCodeData = 0;
    183a:	10 92 90 01 	sts	0x0190, r1	; 0x800190 <tmpCodeData>
    183e:	81 e0       	ldi	r24, 0x01	; 1
				blinkCmdFlag = 1;
    1840:	80 93 c9 01 	sts	0x01C9, r24	; 0x8001c9 <blinkCmdFlag>
    1844:	80 91 90 01 	lds	r24, 0x0190	; 0x800190 <tmpCodeData>
			}
			codePoint = tmpCodeData;
    1848:	90 91 91 01 	lds	r25, 0x0191	; 0x800191 <tmpCodeData+0x1>
    184c:	90 93 93 01 	sts	0x0193, r25	; 0x800193 <codePoint+0x1>
    1850:	80 93 92 01 	sts	0x0192, r24	; 0x800192 <codePoint>
    1854:	80 91 ce 01 	lds	r24, 0x01CE	; 0x8001ce <loadWeight>
			displayWeight1(loadWeight);
    1858:	90 91 cf 01 	lds	r25, 0x01CF	; 0x8001cf <loadWeight+0x1>
    185c:	0e 94 05 04 	call	0x80a	; 0x80a <displayWeight1>
    1860:	35 c0       	rjmp	.+106    	; 0x18cc <modeChangeCode+0x3ca>
			//displayNumber(loadWeight);
			break;
    1862:	80 91 c4 01 	lds	r24, 0x01C4	; 0x8001c4 <editDigitPoint>
		case 4:
		case 5:
		case 6:
			editDigitPoint = ( editDigitPoint <= 0 ) ? 3 : editDigitPoint - 1;
    1866:	88 23       	and	r24, r24
    1868:	69 f1       	breq	.+90     	; 0x18c4 <modeChangeCode+0x3c2>
    186a:	81 50       	subi	r24, 0x01	; 1
    186c:	80 93 c4 01 	sts	0x01C4, r24	; 0x8001c4 <editDigitPoint>
    1870:	81 30       	cpi	r24, 0x01	; 1
			switch(editDigitPoint){
    1872:	51 f0       	breq	.+20     	; 0x1888 <modeChangeCode+0x386>
    1874:	28 f0       	brcs	.+10     	; 0x1880 <modeChangeCode+0x37e>
    1876:	82 30       	cpi	r24, 0x02	; 2
    1878:	59 f0       	breq	.+22     	; 0x1890 <modeChangeCode+0x38e>
    187a:	83 30       	cpi	r24, 0x03	; 3
    187c:	81 f4       	brne	.+32     	; 0x189e <modeChangeCode+0x39c>
    187e:	0c c0       	rjmp	.+24     	; 0x1898 <modeChangeCode+0x396>
    1880:	81 e0       	ldi	r24, 0x01	; 1
				case 0 : blinkCmdFlag = 0x01; break;
    1882:	80 93 c9 01 	sts	0x01C9, r24	; 0x8001c9 <blinkCmdFlag>
    1886:	0b c0       	rjmp	.+22     	; 0x189e <modeChangeCode+0x39c>
    1888:	82 e0       	ldi	r24, 0x02	; 2
				case 1 : blinkCmdFlag = 0x02; break;
    188a:	80 93 c9 01 	sts	0x01C9, r24	; 0x8001c9 <blinkCmdFlag>
    188e:	07 c0       	rjmp	.+14     	; 0x189e <modeChangeCode+0x39c>
    1890:	84 e0       	ldi	r24, 0x04	; 4
				case 2 : blinkCmdFlag = 0x04; break;
    1892:	80 93 c9 01 	sts	0x01C9, r24	; 0x8001c9 <blinkCmdFlag>
    1896:	03 c0       	rjmp	.+6      	; 0x189e <modeChangeCode+0x39c>
    1898:	88 e0       	ldi	r24, 0x08	; 8
				case 3 : blinkCmdFlag = 0x08; break;
    189a:	80 93 c9 01 	sts	0x01C9, r24	; 0x8001c9 <blinkCmdFlag>
    189e:	80 91 90 01 	lds	r24, 0x0190	; 0x800190 <tmpCodeData>
			}	
			displayWeight1(tmpCodeData);
    18a2:	90 91 91 01 	lds	r25, 0x0191	; 0x800191 <tmpCodeData+0x1>
    18a6:	0e 94 05 04 	call	0x80a	; 0x80a <displayWeight1>
    18aa:	10 c0       	rjmp	.+32     	; 0x18cc <modeChangeCode+0x3ca>
			// displayNumber(tmpCodeData);
			break;
    18ac:	10 92 91 01 	sts	0x0191, r1	; 0x800191 <tmpCodeData+0x1>
	}

	if(cmd == BTN_UP){
		switch(codeNumber){
		case CODE_POINT:
			tmpCodeData = ( tmpCodeData > 1 ) ? 0 : tmpCodeData + 1;
    18b0:	10 92 90 01 	sts	0x0190, r1	; 0x800190 <tmpCodeData>
    18b4:	bd ce       	rjmp	.-646    	; 0x1630 <modeChangeCode+0x12e>
    18b6:	82 e0       	ldi	r24, 0x02	; 2
	}

	if(cmd == BTN_LEFT){
		switch(codeNumber){
		case 0:
			tmpCodeData = ( tmpCodeData < 1 ) ? 2 : tmpCodeData - 1;
    18b8:	90 e0       	ldi	r25, 0x00	; 0
    18ba:	90 93 91 01 	sts	0x0191, r25	; 0x800191 <tmpCodeData+0x1>
    18be:	80 93 90 01 	sts	0x0190, r24	; 0x800190 <tmpCodeData>
    18c2:	b5 cf       	rjmp	.-150    	; 0x182e <modeChangeCode+0x32c>
    18c4:	83 e0       	ldi	r24, 0x03	; 3
			//displayNumber(loadWeight);
			break;
		case 4:
		case 5:
		case 6:
			editDigitPoint = ( editDigitPoint <= 0 ) ? 3 : editDigitPoint - 1;
    18c6:	80 93 c4 01 	sts	0x01C4, r24	; 0x8001c4 <editDigitPoint>
    18ca:	e6 cf       	rjmp	.-52     	; 0x1898 <modeChangeCode+0x396>
    18cc:	80 e0       	ldi	r24, 0x00	; 0
			// displayNumber(tmpCodeData);
			break;
		}
	}
	return 0;
}
    18ce:	90 e0       	ldi	r25, 0x00	; 0
    18d0:	08 95       	ret

000018d2 <modeError>:
    18d2:	cf 93       	push	r28
	fndData[0] = fndTableNum[errNo];
	blinkCmdFlag = 0x0f;			//
}

int modeError(uint8_t cmd)
{
    18d4:	df 93       	push	r29
    18d6:	c8 2f       	mov	r28, r24
	int i;
	uint8_t tmp;
	
	if( elaspMsecTime(cntModeErr) > 3000 ) {
    18d8:	60 91 80 01 	lds	r22, 0x0180	; 0x800180 <cntModeErr>
    18dc:	70 91 81 01 	lds	r23, 0x0181	; 0x800181 <cntModeErr+0x1>
    18e0:	80 91 82 01 	lds	r24, 0x0182	; 0x800182 <cntModeErr+0x2>
    18e4:	90 91 83 01 	lds	r25, 0x0183	; 0x800183 <cntModeErr+0x3>
    18e8:	0e 94 d9 01 	call	0x3b2	; 0x3b2 <elaspMsecTime>
    18ec:	69 3b       	cpi	r22, 0xB9	; 185
    18ee:	7b 40       	sbci	r23, 0x0B	; 11
    18f0:	81 05       	cpc	r24, r1
    18f2:	91 05       	cpc	r25, r1
    18f4:	08 f4       	brcc	.+2      	; 0x18f8 <modeError+0x26>
    18f6:	4b c0       	rjmp	.+150    	; 0x198e <modeError+0xbc>
		machineState = mStateBk;		
    18f8:	80 91 af 01 	lds	r24, 0x01AF	; 0x8001af <mStateBk>
    18fc:	80 93 d0 01 	sts	0x01D0, r24	; 0x8001d0 <machineState>
		switch(mStateBk){
    1900:	80 91 af 01 	lds	r24, 0x01AF	; 0x8001af <mStateBk>
    1904:	81 30       	cpi	r24, 0x01	; 1
    1906:	31 f0       	breq	.+12     	; 0x1914 <modeError+0x42>
    1908:	18 f0       	brcs	.+6      	; 0x1910 <modeError+0x3e>
    190a:	83 30       	cpi	r24, 0x03	; 3
    190c:	e1 f0       	breq	.+56     	; 0x1946 <modeError+0x74>
    190e:	45 c0       	rjmp	.+138    	; 0x199a <modeError+0xc8>
		case MODE_RUN:
			enterModeRun();
    1910:	93 db       	rcall	.-2266   	; 0x1038 <enterModeRun>
			break;
    1912:	43 c0       	rjmp	.+134    	; 0x199a <modeError+0xc8>
		case MODE_PASSWD:
			machineState = MODE_PASSWD;
    1914:	81 e0       	ldi	r24, 0x01	; 1
    1916:	80 93 d0 01 	sts	0x01D0, r24	; 0x8001d0 <machineState>
    191a:	ad e9       	ldi	r26, 0x9D	; 157
    191c:	b1 e0       	ldi	r27, 0x01	; 1
    191e:	c9 ea       	ldi	r28, 0xA9	; 169
    1920:	d1 e0       	ldi	r29, 0x01	; 1
    1922:	21 ea       	ldi	r18, 0xA1	; 161
    1924:	31 e0       	ldi	r19, 0x01	; 1
			for( i = 0 ; i < 4 ; i++){
				tmp = passWord[i];
    1926:	ed 91       	ld	r30, X+
				fndData[i] = fndTableNum[tmp];
    1928:	f0 e0       	ldi	r31, 0x00	; 0
    192a:	ec 5f       	subi	r30, 0xFC	; 252
    192c:	fe 4f       	sbci	r31, 0xFE	; 254
    192e:	80 81       	ld	r24, Z
    1930:	89 93       	st	Y+, r24
		case MODE_RUN:
			enterModeRun();
			break;
		case MODE_PASSWD:
			machineState = MODE_PASSWD;
			for( i = 0 ; i < 4 ; i++){
    1932:	a2 17       	cp	r26, r18
    1934:	b3 07       	cpc	r27, r19
    1936:	b9 f7       	brne	.-18     	; 0x1926 <modeError+0x54>
				tmp = passWord[i];
				fndData[i] = fndTableNum[tmp];
			}
			blinkCmdFlag = 0x08;
    1938:	88 e0       	ldi	r24, 0x08	; 8
    193a:	80 93 c9 01 	sts	0x01C9, r24	; 0x8001c9 <blinkCmdFlag>
			editDigitPoint = 3;		// 1000
    193e:	83 e0       	ldi	r24, 0x03	; 3
    1940:	80 93 c4 01 	sts	0x01C4, r24	; 0x8001c4 <editDigitPoint>
			break;
    1944:	2a c0       	rjmp	.+84     	; 0x199a <modeError+0xc8>
		case MODE_CHANGE_CODE	:
			
			if(codeNumber == CODE_AUTO){
    1946:	80 91 98 01 	lds	r24, 0x0198	; 0x800198 <codeNumber>
    194a:	90 91 99 01 	lds	r25, 0x0199	; 0x800199 <codeNumber+0x1>
    194e:	83 30       	cpi	r24, 0x03	; 3
    1950:	91 05       	cpc	r25, r1
    1952:	a9 f4       	brne	.+42     	; 0x197e <modeError+0xac>
				tmpCodeData = 0;
    1954:	10 92 91 01 	sts	0x0191, r1	; 0x800191 <tmpCodeData+0x1>
    1958:	10 92 90 01 	sts	0x0190, r1	; 0x800190 <tmpCodeData>
				blinkCmdFlag = 0x0f;	//
    195c:	8f e0       	ldi	r24, 0x0F	; 15
    195e:	80 93 c9 01 	sts	0x01C9, r24	; 0x8001c9 <blinkCmdFlag>
				fndData[3] = 0x00;
    1962:	e9 ea       	ldi	r30, 0xA9	; 169
    1964:	f1 e0       	ldi	r31, 0x01	; 1
    1966:	13 82       	std	Z+3, r1	; 0x03
				fndData[2] = fndTableChar['N' - 'A'];
    1968:	ae e0       	ldi	r26, 0x0E	; 14
    196a:	b1 e0       	ldi	r27, 0x01	; 1
    196c:	1d 96       	adiw	r26, 0x0d	; 13
    196e:	8c 91       	ld	r24, X
    1970:	1d 97       	sbiw	r26, 0x0d	; 13
    1972:	82 83       	std	Z+2, r24	; 0x02
				fndData[1] = fndTableChar['O' - 'A'];
    1974:	1e 96       	adiw	r26, 0x0e	; 14
    1976:	8c 91       	ld	r24, X
    1978:	81 83       	std	Z+1, r24	; 0x01
				fndData[0] = 0x00;
    197a:	10 82       	st	Z, r1
    197c:	0e c0       	rjmp	.+28     	; 0x199a <modeError+0xc8>
			} else if ( codeNumber == CODE_SETT ) {
    197e:	06 97       	sbiw	r24, 0x06	; 6
    1980:	61 f4       	brne	.+24     	; 0x199a <modeError+0xc8>
				setEditTmpFndData(tmpCodeData);
    1982:	80 91 90 01 	lds	r24, 0x0190	; 0x800190 <tmpCodeData>
    1986:	90 91 91 01 	lds	r25, 0x0191	; 0x800191 <tmpCodeData+0x1>
    198a:	9b db       	rcall	.-2250   	; 0x10c2 <setEditTmpFndData>
    198c:	06 c0       	rjmp	.+12     	; 0x199a <modeError+0xc8>
			}
		}
	} else if(cmd == BTN_ENTER ){
    198e:	cf 37       	cpi	r28, 0x7F	; 127
    1990:	21 f4       	brne	.+8      	; 0x199a <modeError+0xc8>
		machineState = mStateBk;
    1992:	80 91 af 01 	lds	r24, 0x01AF	; 0x8001af <mStateBk>
    1996:	80 93 d0 01 	sts	0x01D0, r24	; 0x8001d0 <machineState>
	}
	return 0;
}
    199a:	80 e0       	ldi	r24, 0x00	; 0
    199c:	90 e0       	ldi	r25, 0x00	; 0
    199e:	df 91       	pop	r29
    19a0:	cf 91       	pop	r28
    19a2:	08 95       	ret

000019a4 <initUart>:
	for( i = 0 ; i < 9 ; i++){
		transmitByte( gUartTxBuffer[i]);
	}
	_delay_ms(10);
	RS485_RX_EN;	
}
    19a4:	10 92 98 00 	sts	0x0098, r1	; 0x800098 <__TEXT_REGION_LENGTH__+0x7e0098>
    19a8:	87 e6       	ldi	r24, 0x67	; 103
    19aa:	80 93 99 00 	sts	0x0099, r24	; 0x800099 <__TEXT_REGION_LENGTH__+0x7e0099>
    19ae:	ed e9       	ldi	r30, 0x9D	; 157
    19b0:	f0 e0       	ldi	r31, 0x00	; 0
    19b2:	80 81       	ld	r24, Z
    19b4:	86 60       	ori	r24, 0x06	; 6
    19b6:	80 83       	st	Z, r24
    19b8:	80 81       	ld	r24, Z
    19ba:	87 7f       	andi	r24, 0xF7	; 247
    19bc:	80 83       	st	Z, r24
    19be:	80 81       	ld	r24, Z
    19c0:	8f 7c       	andi	r24, 0xCF	; 207
    19c2:	80 83       	st	Z, r24
    19c4:	88 e9       	ldi	r24, 0x98	; 152
    19c6:	80 93 9a 00 	sts	0x009A, r24	; 0x80009a <__TEXT_REGION_LENGTH__+0x7e009a>
    19ca:	08 95       	ret

000019cc <transmitByte>:
    19cc:	eb e9       	ldi	r30, 0x9B	; 155
    19ce:	f0 e0       	ldi	r31, 0x00	; 0
    19d0:	90 81       	ld	r25, Z
    19d2:	95 ff       	sbrs	r25, 5
    19d4:	fd cf       	rjmp	.-6      	; 0x19d0 <transmitByte+0x4>
    19d6:	80 93 9c 00 	sts	0x009C, r24	; 0x80009c <__TEXT_REGION_LENGTH__+0x7e009c>
    19da:	08 95       	ret

000019dc <__vector_30>:
    19dc:	1f 92       	push	r1
    19de:	0f 92       	push	r0
    19e0:	0f b6       	in	r0, 0x3f	; 63
    19e2:	0f 92       	push	r0
    19e4:	11 24       	eor	r1, r1
    19e6:	0b b6       	in	r0, 0x3b	; 59
    19e8:	0f 92       	push	r0
    19ea:	2f 93       	push	r18
    19ec:	3f 93       	push	r19
    19ee:	8f 93       	push	r24
    19f0:	9f 93       	push	r25
    19f2:	af 93       	push	r26
    19f4:	bf 93       	push	r27
    19f6:	ef 93       	push	r30
    19f8:	ff 93       	push	r31
    19fa:	90 91 9c 00 	lds	r25, 0x009C	; 0x80009c <__TEXT_REGION_LENGTH__+0x7e009c>
    19fe:	80 91 8f 01 	lds	r24, 0x018F	; 0x80018f <flagStx.1888>
    1a02:	81 11       	cpse	r24, r1
    1a04:	0a c0       	rjmp	.+20     	; 0x1a1a <__vector_30+0x3e>
    1a06:	92 30       	cpi	r25, 0x02	; 2
    1a08:	81 f5       	brne	.+96     	; 0x1a6a <__vector_30+0x8e>
    1a0a:	81 e0       	ldi	r24, 0x01	; 1
    1a0c:	80 93 8e 01 	sts	0x018E, r24	; 0x80018e <gUartIndex.1887>
    1a10:	90 93 6c 01 	sts	0x016C, r25	; 0x80016c <gUartRxBuffer>
    1a14:	80 93 8f 01 	sts	0x018F, r24	; 0x80018f <flagStx.1888>
    1a18:	28 c0       	rjmp	.+80     	; 0x1a6a <__vector_30+0x8e>
    1a1a:	81 30       	cpi	r24, 0x01	; 1
    1a1c:	31 f5       	brne	.+76     	; 0x1a6a <__vector_30+0x8e>
    1a1e:	e0 91 8e 01 	lds	r30, 0x018E	; 0x80018e <gUartIndex.1887>
    1a22:	8e 0f       	add	r24, r30
    1a24:	80 93 8e 01 	sts	0x018E, r24	; 0x80018e <gUartIndex.1887>
    1a28:	f0 e0       	ldi	r31, 0x00	; 0
    1a2a:	e4 59       	subi	r30, 0x94	; 148
    1a2c:	fe 4f       	sbci	r31, 0xFE	; 254
    1a2e:	90 83       	st	Z, r25
    1a30:	93 30       	cpi	r25, 0x03	; 3
    1a32:	d9 f4       	brne	.+54     	; 0x1a6a <__vector_30+0x8e>
    1a34:	81 e0       	ldi	r24, 0x01	; 1
    1a36:	90 e0       	ldi	r25, 0x00	; 0
    1a38:	90 93 b9 01 	sts	0x01B9, r25	; 0x8001b9 <gflagConnect+0x1>
    1a3c:	80 93 b8 01 	sts	0x01B8, r24	; 0x8001b8 <gflagConnect>
    1a40:	10 92 8f 01 	sts	0x018F, r1	; 0x80018f <flagStx.1888>
    1a44:	ec e6       	ldi	r30, 0x6C	; 108
    1a46:	f1 e0       	ldi	r31, 0x01	; 1
    1a48:	a6 e7       	ldi	r26, 0x76	; 118
    1a4a:	b1 e0       	ldi	r27, 0x01	; 1
    1a4c:	22 e7       	ldi	r18, 0x72	; 114
    1a4e:	31 e0       	ldi	r19, 0x01	; 1
    1a50:	81 91       	ld	r24, Z+
    1a52:	8d 93       	st	X+, r24
    1a54:	e2 17       	cp	r30, r18
    1a56:	f3 07       	cpc	r31, r19
    1a58:	d9 f7       	brne	.-10     	; 0x1a50 <__vector_30+0x74>
    1a5a:	86 e0       	ldi	r24, 0x06	; 6
    1a5c:	90 e0       	ldi	r25, 0x00	; 0
    1a5e:	90 93 8d 01 	sts	0x018D, r25	; 0x80018d <i.1885+0x1>
    1a62:	80 93 8c 01 	sts	0x018C, r24	; 0x80018c <i.1885>
    1a66:	10 92 8e 01 	sts	0x018E, r1	; 0x80018e <gUartIndex.1887>
    1a6a:	ff 91       	pop	r31
    1a6c:	ef 91       	pop	r30
    1a6e:	bf 91       	pop	r27
    1a70:	af 91       	pop	r26
    1a72:	9f 91       	pop	r25
    1a74:	8f 91       	pop	r24
    1a76:	3f 91       	pop	r19
    1a78:	2f 91       	pop	r18
    1a7a:	0f 90       	pop	r0
    1a7c:	0b be       	out	0x3b, r0	; 59
    1a7e:	0f 90       	pop	r0
    1a80:	0f be       	out	0x3f, r0	; 63
    1a82:	0f 90       	pop	r0
    1a84:	1f 90       	pop	r1
    1a86:	18 95       	reti

00001a88 <sendToLargeFnd>:

void sendToLargeFnd( )
{
    1a88:	0f 93       	push	r16
    1a8a:	1f 93       	push	r17
    1a8c:	cf 93       	push	r28
    1a8e:	df 93       	push	r29

	int i;
	char retVal[10]={0};

	RS485_TX_EN;
    1a90:	df 9a       	sbi	0x1b, 7	; 27

	gUartTxBuffer[0] = 0xAA;
    1a92:	e6 e7       	ldi	r30, 0x76	; 118
    1a94:	f1 e0       	ldi	r31, 0x01	; 1
    1a96:	8a ea       	ldi	r24, 0xAA	; 170
    1a98:	80 83       	st	Z, r24
	gUartTxBuffer[1] = 0x09;	
    1a9a:	89 e0       	ldi	r24, 0x09	; 9
    1a9c:	81 83       	std	Z+1, r24	; 0x01

	// toAscii(loadWeight,codePoint, retVal);
	if( loadWeight < 0){
    1a9e:	20 91 ce 01 	lds	r18, 0x01CE	; 0x8001ce <loadWeight>
    1aa2:	30 91 cf 01 	lds	r19, 0x01CF	; 0x8001cf <loadWeight+0x1>
    1aa6:	33 23       	and	r19, r19
    1aa8:	3c f4       	brge	.+14     	; 0x1ab8 <sendToLargeFnd+0x30>
		gUartTxBuffer[2] = retVal[0];
    1aaa:	12 82       	std	Z+2, r1	; 0x02
		gUartTxBuffer[3] = retVal[1];
    1aac:	13 82       	std	Z+3, r1	; 0x03
		gUartTxBuffer[4] = retVal[2];
    1aae:	14 82       	std	Z+4, r1	; 0x04
		gUartTxBuffer[5] = retVal[3];
    1ab0:	15 82       	std	Z+5, r1	; 0x05
		gUartTxBuffer[7] = 0xbb;
    1ab2:	8b eb       	ldi	r24, 0xBB	; 187
    1ab4:	87 83       	std	Z+7, r24	; 0x07
    1ab6:	1a c0       	rjmp	.+52     	; 0x1aec <sendToLargeFnd+0x64>
	} else {
		gUartTxBuffer[2] = loadWeight/1000;
    1ab8:	e6 e7       	ldi	r30, 0x76	; 118
    1aba:	f1 e0       	ldi	r31, 0x01	; 1
    1abc:	c9 01       	movw	r24, r18
    1abe:	68 ee       	ldi	r22, 0xE8	; 232
    1ac0:	73 e0       	ldi	r23, 0x03	; 3
    1ac2:	50 d0       	rcall	.+160    	; 0x1b64 <__divmodhi4>
    1ac4:	62 83       	std	Z+2, r22	; 0x02
		gUartTxBuffer[3] = (loadWeight%1000)/100;
    1ac6:	c4 e6       	ldi	r28, 0x64	; 100
    1ac8:	d0 e0       	ldi	r29, 0x00	; 0
    1aca:	be 01       	movw	r22, r28
    1acc:	4b d0       	rcall	.+150    	; 0x1b64 <__divmodhi4>
    1ace:	63 83       	std	Z+3, r22	; 0x03
		gUartTxBuffer[4] = (loadWeight%100)/10;
    1ad0:	c9 01       	movw	r24, r18
    1ad2:	be 01       	movw	r22, r28
    1ad4:	47 d0       	rcall	.+142    	; 0x1b64 <__divmodhi4>
    1ad6:	ca e0       	ldi	r28, 0x0A	; 10
    1ad8:	d0 e0       	ldi	r29, 0x00	; 0
    1ada:	be 01       	movw	r22, r28
    1adc:	43 d0       	rcall	.+134    	; 0x1b64 <__divmodhi4>
    1ade:	64 83       	std	Z+4, r22	; 0x04
		gUartTxBuffer[5] = loadWeight%10;
    1ae0:	c9 01       	movw	r24, r18
    1ae2:	be 01       	movw	r22, r28
    1ae4:	3f d0       	rcall	.+126    	; 0x1b64 <__divmodhi4>
    1ae6:	85 83       	std	Z+5, r24	; 0x05
    1ae8:	8b eb       	ldi	r24, 0xBB	; 187
		gUartTxBuffer[7] = 0xbb;
    1aea:	87 83       	std	Z+7, r24	; 0x07
    1aec:	8f e5       	ldi	r24, 0x5F	; 95
    1aee:	9d e6       	ldi	r25, 0x6D	; 109
    1af0:	01 97       	sbiw	r24, 0x01	; 1
    1af2:	f1 f7       	brne	.-4      	; 0x1af0 <sendToLargeFnd+0x68>
    1af4:	00 c0       	rjmp	.+0      	; 0x1af6 <sendToLargeFnd+0x6e>
    1af6:	00 00       	nop
    1af8:	c6 e7       	ldi	r28, 0x76	; 118
    1afa:	d1 e0       	ldi	r29, 0x01	; 1
    1afc:	0e e7       	ldi	r16, 0x7E	; 126
    1afe:	11 e0       	ldi	r17, 0x01	; 1
	}
	_delay_ms(7);
	for( i = 0 ; i < 8 ; i++){
		transmitByte( gUartTxBuffer[i]);
    1b00:	89 91       	ld	r24, Y+
    1b02:	64 df       	rcall	.-312    	; 0x19cc <transmitByte>
    1b04:	c0 17       	cp	r28, r16
		gUartTxBuffer[4] = (loadWeight%100)/10;
		gUartTxBuffer[5] = loadWeight%10;
		gUartTxBuffer[7] = 0xbb;
	}
	_delay_ms(7);
	for( i = 0 ; i < 8 ; i++){
    1b06:	d1 07       	cpc	r29, r17
    1b08:	d9 f7       	brne	.-10     	; 0x1b00 <sendToLargeFnd+0x78>
    1b0a:	8f e3       	ldi	r24, 0x3F	; 63
    1b0c:	9c e9       	ldi	r25, 0x9C	; 156
    1b0e:	01 97       	sbiw	r24, 0x01	; 1
    1b10:	f1 f7       	brne	.-4      	; 0x1b0e <sendToLargeFnd+0x86>
    1b12:	00 c0       	rjmp	.+0      	; 0x1b14 <sendToLargeFnd+0x8c>
    1b14:	00 00       	nop
    1b16:	df 98       	cbi	0x1b, 7	; 27
		transmitByte( gUartTxBuffer[i]);
	}
	_delay_ms(10);
	RS485_RX_EN;
    1b18:	df 91       	pop	r29
}
    1b1a:	cf 91       	pop	r28
    1b1c:	1f 91       	pop	r17
    1b1e:	0f 91       	pop	r16
    1b20:	08 95       	ret

00001b22 <sciCommandProc>:
    1b22:	60 91 88 01 	lds	r22, 0x0188	; 0x800188 <startCount.1918>
void sciCommandProc()
{
	static uint32_t startCount=0;

	
	if( elaspMsecTime(startCount) > 500 ){
    1b26:	70 91 89 01 	lds	r23, 0x0189	; 0x800189 <startCount.1918+0x1>
    1b2a:	80 91 8a 01 	lds	r24, 0x018A	; 0x80018a <startCount.1918+0x2>
    1b2e:	90 91 8b 01 	lds	r25, 0x018B	; 0x80018b <startCount.1918+0x3>
    1b32:	0e 94 d9 01 	call	0x3b2	; 0x3b2 <elaspMsecTime>
    1b36:	65 3f       	cpi	r22, 0xF5	; 245
    1b38:	71 40       	sbci	r23, 0x01	; 1
    1b3a:	81 05       	cpc	r24, r1
    1b3c:	91 05       	cpc	r25, r1
    1b3e:	88 f0       	brcs	.+34     	; 0x1b62 <sciCommandProc+0x40>
		startCount = timerCounter2;
    1b40:	80 91 84 01 	lds	r24, 0x0184	; 0x800184 <timerCounter2>
    1b44:	90 91 85 01 	lds	r25, 0x0185	; 0x800185 <timerCounter2+0x1>
    1b48:	a0 91 86 01 	lds	r26, 0x0186	; 0x800186 <timerCounter2+0x2>
    1b4c:	b0 91 87 01 	lds	r27, 0x0187	; 0x800187 <timerCounter2+0x3>
    1b50:	80 93 88 01 	sts	0x0188, r24	; 0x800188 <startCount.1918>
    1b54:	90 93 89 01 	sts	0x0189, r25	; 0x800189 <startCount.1918+0x1>
    1b58:	a0 93 8a 01 	sts	0x018A, r26	; 0x80018a <startCount.1918+0x2>
    1b5c:	b0 93 8b 01 	sts	0x018B, r27	; 0x80018b <startCount.1918+0x3>
		sendToLargeFnd( );
    1b60:	93 cf       	rjmp	.-218    	; 0x1a88 <sendToLargeFnd>
    1b62:	08 95       	ret

00001b64 <__divmodhi4>:
    1b64:	97 fb       	bst	r25, 7
    1b66:	07 2e       	mov	r0, r23
    1b68:	16 f4       	brtc	.+4      	; 0x1b6e <__divmodhi4+0xa>
    1b6a:	00 94       	com	r0
    1b6c:	06 d0       	rcall	.+12     	; 0x1b7a <__divmodhi4_neg1>
    1b6e:	77 fd       	sbrc	r23, 7
    1b70:	08 d0       	rcall	.+16     	; 0x1b82 <__divmodhi4_neg2>
    1b72:	36 d0       	rcall	.+108    	; 0x1be0 <__udivmodhi4>
    1b74:	07 fc       	sbrc	r0, 7
    1b76:	05 d0       	rcall	.+10     	; 0x1b82 <__divmodhi4_neg2>
    1b78:	3e f4       	brtc	.+14     	; 0x1b88 <__divmodhi4_exit>

00001b7a <__divmodhi4_neg1>:
    1b7a:	90 95       	com	r25
    1b7c:	81 95       	neg	r24
    1b7e:	9f 4f       	sbci	r25, 0xFF	; 255
    1b80:	08 95       	ret

00001b82 <__divmodhi4_neg2>:
    1b82:	70 95       	com	r23
    1b84:	61 95       	neg	r22
    1b86:	7f 4f       	sbci	r23, 0xFF	; 255

00001b88 <__divmodhi4_exit>:
    1b88:	08 95       	ret

00001b8a <__divmodsi4>:
    1b8a:	05 2e       	mov	r0, r21
    1b8c:	97 fb       	bst	r25, 7
    1b8e:	16 f4       	brtc	.+4      	; 0x1b94 <__divmodsi4+0xa>
    1b90:	00 94       	com	r0
    1b92:	0f d0       	rcall	.+30     	; 0x1bb2 <__negsi2>
    1b94:	57 fd       	sbrc	r21, 7
    1b96:	05 d0       	rcall	.+10     	; 0x1ba2 <__divmodsi4_neg2>
    1b98:	37 d0       	rcall	.+110    	; 0x1c08 <__udivmodsi4>
    1b9a:	07 fc       	sbrc	r0, 7
    1b9c:	02 d0       	rcall	.+4      	; 0x1ba2 <__divmodsi4_neg2>
    1b9e:	46 f4       	brtc	.+16     	; 0x1bb0 <__divmodsi4_exit>
    1ba0:	08 c0       	rjmp	.+16     	; 0x1bb2 <__negsi2>

00001ba2 <__divmodsi4_neg2>:
    1ba2:	50 95       	com	r21
    1ba4:	40 95       	com	r20
    1ba6:	30 95       	com	r19
    1ba8:	21 95       	neg	r18
    1baa:	3f 4f       	sbci	r19, 0xFF	; 255
    1bac:	4f 4f       	sbci	r20, 0xFF	; 255
    1bae:	5f 4f       	sbci	r21, 0xFF	; 255

00001bb0 <__divmodsi4_exit>:
    1bb0:	08 95       	ret

00001bb2 <__negsi2>:
    1bb2:	90 95       	com	r25
    1bb4:	80 95       	com	r24
    1bb6:	70 95       	com	r23
    1bb8:	61 95       	neg	r22
    1bba:	7f 4f       	sbci	r23, 0xFF	; 255
    1bbc:	8f 4f       	sbci	r24, 0xFF	; 255
    1bbe:	9f 4f       	sbci	r25, 0xFF	; 255
    1bc0:	08 95       	ret

00001bc2 <__tablejump2__>:
    1bc2:	ee 0f       	add	r30, r30
    1bc4:	ff 1f       	adc	r31, r31
    1bc6:	00 24       	eor	r0, r0
    1bc8:	00 1c       	adc	r0, r0
    1bca:	0b be       	out	0x3b, r0	; 59
    1bcc:	07 90       	elpm	r0, Z+
    1bce:	f6 91       	elpm	r31, Z
    1bd0:	e0 2d       	mov	r30, r0
    1bd2:	09 94       	ijmp

00001bd4 <__mulshisi3>:
    1bd4:	b7 ff       	sbrs	r27, 7
    1bd6:	3a c0       	rjmp	.+116    	; 0x1c4c <__muluhisi3>

00001bd8 <__mulohisi3>:
    1bd8:	39 d0       	rcall	.+114    	; 0x1c4c <__muluhisi3>
    1bda:	82 1b       	sub	r24, r18
    1bdc:	93 0b       	sbc	r25, r19
    1bde:	08 95       	ret

00001be0 <__udivmodhi4>:
    1be0:	aa 1b       	sub	r26, r26
    1be2:	bb 1b       	sub	r27, r27
    1be4:	51 e1       	ldi	r21, 0x11	; 17
    1be6:	07 c0       	rjmp	.+14     	; 0x1bf6 <__udivmodhi4_ep>

00001be8 <__udivmodhi4_loop>:
    1be8:	aa 1f       	adc	r26, r26
    1bea:	bb 1f       	adc	r27, r27
    1bec:	a6 17       	cp	r26, r22
    1bee:	b7 07       	cpc	r27, r23
    1bf0:	10 f0       	brcs	.+4      	; 0x1bf6 <__udivmodhi4_ep>
    1bf2:	a6 1b       	sub	r26, r22
    1bf4:	b7 0b       	sbc	r27, r23

00001bf6 <__udivmodhi4_ep>:
    1bf6:	88 1f       	adc	r24, r24
    1bf8:	99 1f       	adc	r25, r25
    1bfa:	5a 95       	dec	r21
    1bfc:	a9 f7       	brne	.-22     	; 0x1be8 <__udivmodhi4_loop>
    1bfe:	80 95       	com	r24
    1c00:	90 95       	com	r25
    1c02:	bc 01       	movw	r22, r24
    1c04:	cd 01       	movw	r24, r26
    1c06:	08 95       	ret

00001c08 <__udivmodsi4>:
    1c08:	a1 e2       	ldi	r26, 0x21	; 33
    1c0a:	1a 2e       	mov	r1, r26
    1c0c:	aa 1b       	sub	r26, r26
    1c0e:	bb 1b       	sub	r27, r27
    1c10:	fd 01       	movw	r30, r26
    1c12:	0d c0       	rjmp	.+26     	; 0x1c2e <__udivmodsi4_ep>

00001c14 <__udivmodsi4_loop>:
    1c14:	aa 1f       	adc	r26, r26
    1c16:	bb 1f       	adc	r27, r27
    1c18:	ee 1f       	adc	r30, r30
    1c1a:	ff 1f       	adc	r31, r31
    1c1c:	a2 17       	cp	r26, r18
    1c1e:	b3 07       	cpc	r27, r19
    1c20:	e4 07       	cpc	r30, r20
    1c22:	f5 07       	cpc	r31, r21
    1c24:	20 f0       	brcs	.+8      	; 0x1c2e <__udivmodsi4_ep>
    1c26:	a2 1b       	sub	r26, r18
    1c28:	b3 0b       	sbc	r27, r19
    1c2a:	e4 0b       	sbc	r30, r20
    1c2c:	f5 0b       	sbc	r31, r21

00001c2e <__udivmodsi4_ep>:
    1c2e:	66 1f       	adc	r22, r22
    1c30:	77 1f       	adc	r23, r23
    1c32:	88 1f       	adc	r24, r24
    1c34:	99 1f       	adc	r25, r25
    1c36:	1a 94       	dec	r1
    1c38:	69 f7       	brne	.-38     	; 0x1c14 <__udivmodsi4_loop>
    1c3a:	60 95       	com	r22
    1c3c:	70 95       	com	r23
    1c3e:	80 95       	com	r24
    1c40:	90 95       	com	r25
    1c42:	9b 01       	movw	r18, r22
    1c44:	ac 01       	movw	r20, r24
    1c46:	bd 01       	movw	r22, r26
    1c48:	cf 01       	movw	r24, r30
    1c4a:	08 95       	ret

00001c4c <__muluhisi3>:
    1c4c:	09 d0       	rcall	.+18     	; 0x1c60 <__umulhisi3>
    1c4e:	a5 9f       	mul	r26, r21
    1c50:	90 0d       	add	r25, r0
    1c52:	b4 9f       	mul	r27, r20
    1c54:	90 0d       	add	r25, r0
    1c56:	a4 9f       	mul	r26, r20
    1c58:	80 0d       	add	r24, r0
    1c5a:	91 1d       	adc	r25, r1
    1c5c:	11 24       	eor	r1, r1
    1c5e:	08 95       	ret

00001c60 <__umulhisi3>:
    1c60:	a2 9f       	mul	r26, r18
    1c62:	b0 01       	movw	r22, r0
    1c64:	b3 9f       	mul	r27, r19
    1c66:	c0 01       	movw	r24, r0
    1c68:	a3 9f       	mul	r26, r19
    1c6a:	70 0d       	add	r23, r0
    1c6c:	81 1d       	adc	r24, r1
    1c6e:	11 24       	eor	r1, r1
    1c70:	91 1d       	adc	r25, r1
    1c72:	b2 9f       	mul	r27, r18
    1c74:	70 0d       	add	r23, r0
    1c76:	81 1d       	adc	r24, r1
    1c78:	11 24       	eor	r1, r1
    1c7a:	91 1d       	adc	r25, r1
    1c7c:	08 95       	ret

00001c7e <_exit>:
    1c7e:	f8 94       	cli

00001c80 <__stop_program>:
    1c80:	ff cf       	rjmp	.-2      	; 0x1c80 <__stop_program>
